LIBRARY qmyedit_qt5
EXPORTS
    ??0Document@Internal@Scintilla@@QEAA@W4DocumentOption@2@@Z
    ??0KeyMap@Internal@Scintilla@@QEAA@$$QEAV012@@Z
    ??0KeyMap@Internal@Scintilla@@QEAA@AEBV012@@Z
    ??0KeyMap@Internal@Scintilla@@QEAA@XZ
    ??0KeyModifiers@Internal@Scintilla@@QEAA@W4Keys@2@W4KeyMod@2@@Z
    ??0KeyModifiers@Internal@Scintilla@@QEAA@XZ
    ??0QsciAPIs@@QEAA@PEAVQsciLexer@@@Z
    ??0QsciAbstractAPIs@@QEAA@PEAVQsciLexer@@@Z
    ??0QsciCommand@@AEAA@PEAVQsciScintilla@@W4Command@0@HHPEBD@Z
    ??0QsciCommandSet@@AEAA@PEAVQsciScintilla@@@Z
    ??0QsciDocument@@QEAA@AEBV0@@Z
    ??0QsciDocument@@QEAA@XZ
    ??0QsciLexer@@QEAA@PEAVQObject@@@Z
    ??0QsciLexerApdl@@QEAA@PEAVQObject@@@Z
    ??0QsciLexerAsm@@QEAA@PEAVQObject@@@Z
    ??0QsciLexerBash@@QEAA@PEAVQObject@@@Z
    ??0QsciLexerBatch@@QEAA@PEAVQObject@@@Z
    ??0QsciLexerCMake@@QEAA@PEAVQObject@@@Z
    ??0QsciLexerCPP@@QEAA@PEAVQObject@@_N@Z
    ??0QsciLexerCSS@@QEAA@PEAVQObject@@@Z
    ??0QsciLexerCSharp@@QEAA@PEAVQObject@@@Z
    ??0QsciLexerCoffeeScript@@QEAA@PEAVQObject@@@Z
    ??0QsciLexerCustom@@QEAA@PEAVQObject@@@Z
    ??0QsciLexerD@@QEAA@PEAVQObject@@@Z
    ??0QsciLexerDiff@@QEAA@PEAVQObject@@@Z
    ??0QsciLexerEDIFACT@@QEAA@PEAVQObject@@@Z
    ??0QsciLexerFortran77@@QEAA@PEAVQObject@@@Z
    ??0QsciLexerFortran@@QEAA@PEAVQObject@@@Z
    ??0QsciLexerGCode@@QEAA@PEAVQObject@@@Z
    ??0QsciLexerGO@@QEAA@PEAVQObject@@@Z
    ??0QsciLexerGlobal@@QEAA@PEAVQObject@@@Z
    ??0QsciLexerHTML@@QEAA@PEAVQObject@@@Z
    ??0QsciLexerHex@@QEAA@PEAVQObject@@@Z
    ??0QsciLexerIDL@@QEAA@PEAVQObject@@@Z
    ??0QsciLexerIntelHex@@QEAA@PEAVQObject@@@Z
    ??0QsciLexerJSON@@QEAA@PEAVQObject@@@Z
    ??0QsciLexerJava@@QEAA@PEAVQObject@@@Z
    ??0QsciLexerJavaScript@@QEAA@PEAVQObject@@@Z
    ??0QsciLexerLisp@@QEAA@PEAVQObject@@@Z
    ??0QsciLexerLog@@QEAA@PEAVQObject@@@Z
    ??0QsciLexerLua@@QEAA@PEAVQObject@@@Z
    ??0QsciLexerMASM@@QEAA@PEAVQObject@@@Z
    ??0QsciLexerMakefile@@QEAA@PEAVQObject@@@Z
    ??0QsciLexerMarkdown@@QEAA@PEAVQObject@@@Z
    ??0QsciLexerMatlab@@QEAA@PEAVQObject@@@Z
    ??0QsciLexerNASM@@QEAA@PEAVQObject@@@Z
    ??0QsciLexerNsis@@QEAA@PEAVQObject@@@Z
    ??0QsciLexerOctave@@QEAA@PEAVQObject@@@Z
    ??0QsciLexerPO@@QEAA@PEAVQObject@@@Z
    ??0QsciLexerPOV@@QEAA@PEAVQObject@@@Z
    ??0QsciLexerPascal@@QEAA@PEAVQObject@@@Z
    ??0QsciLexerPerl@@QEAA@PEAVQObject@@@Z
    ??0QsciLexerPostScript@@QEAA@PEAVQObject@@@Z
    ??0QsciLexerPowerShell@@QEAA@PEAVQObject@@@Z
    ??0QsciLexerProperties@@QEAA@PEAVQObject@@@Z
    ??0QsciLexerPython@@QEAA@PEAVQObject@@@Z
    ??0QsciLexerR@@QEAA@PEAVQObject@@@Z
    ??0QsciLexerRuby@@QEAA@PEAVQObject@@@Z
    ??0QsciLexerRust@@QEAA@PEAVQObject@@@Z
    ??0QsciLexerSQL@@QEAA@PEAVQObject@@@Z
    ??0QsciLexerSRec@@QEAA@PEAVQObject@@@Z
    ??0QsciLexerSpice@@QEAA@PEAVQObject@@@Z
    ??0QsciLexerTCL@@QEAA@PEAVQObject@@@Z
    ??0QsciLexerTeX@@QEAA@PEAVQObject@@@Z
    ??0QsciLexerTekHex@@QEAA@PEAVQObject@@@Z
    ??0QsciLexerText@@QEAA@PEAVQObject@@@Z
    ??0QsciLexerVB@@QEAA@PEAVQObject@@@Z
    ??0QsciLexerVHDL@@QEAA@PEAVQObject@@@Z
    ??0QsciLexerVerilog@@QEAA@PEAVQObject@@@Z
    ??0QsciLexerXML@@QEAA@PEAVQObject@@@Z
    ??0QsciLexerYAML@@QEAA@PEAVQObject@@@Z
    ??0QsciMacro@@QEAA@AEBVQString@@PEAVQsciScintilla@@@Z
    ??0QsciMacro@@QEAA@PEAVQsciScintilla@@@Z
    ??0QsciPrinter@@QEAA@W4PrinterMode@QPrinter@@@Z
    ??0QsciScintilla@@QEAA@PEAVQWidget@@@Z
    ??0QsciScintillaBase@@QEAA@PEAVQWidget@@@Z
    ??0QsciStyle@@QEAA@$$QEAV0@@Z
    ??0QsciStyle@@QEAA@AEBV0@@Z
    ??0QsciStyle@@QEAA@H@Z
    ??0QsciStyle@@QEAA@HAEBVQString@@AEBVQColor@@1AEBVQFont@@_N@Z
    ??0QsciStyledText@@QEAA@$$QEAV0@@Z
    ??0QsciStyledText@@QEAA@AEBV0@@Z
    ??0QsciStyledText@@QEAA@AEBVQString@@AEBVQsciStyle@@@Z
    ??0QsciStyledText@@QEAA@AEBVQString@@H@Z
    ??1Document@Internal@Scintilla@@UEAA@XZ
    ??1KeyMap@Internal@Scintilla@@QEAA@XZ
    ??1QsciAPIs@@UEAA@XZ
    ??1QsciAbstractAPIs@@UEAA@XZ
    ??1QsciCommandSet@@AEAA@XZ
    ??1QsciDocument@@UEAA@XZ
    ??1QsciLexer@@UEAA@XZ
    ??1QsciLexerApdl@@UEAA@XZ
    ??1QsciLexerAsm@@UEAA@XZ
    ??1QsciLexerBash@@UEAA@XZ
    ??1QsciLexerBatch@@UEAA@XZ
    ??1QsciLexerCMake@@UEAA@XZ
    ??1QsciLexerCPP@@UEAA@XZ
    ??1QsciLexerCSS@@UEAA@XZ
    ??1QsciLexerCSharp@@UEAA@XZ
    ??1QsciLexerCoffeeScript@@UEAA@XZ
    ??1QsciLexerCustom@@UEAA@XZ
    ??1QsciLexerD@@UEAA@XZ
    ??1QsciLexerDiff@@UEAA@XZ
    ??1QsciLexerEDIFACT@@UEAA@XZ
    ??1QsciLexerFortran77@@UEAA@XZ
    ??1QsciLexerFortran@@UEAA@XZ
    ??1QsciLexerGCode@@UEAA@XZ
    ??1QsciLexerGO@@UEAA@XZ
    ??1QsciLexerGlobal@@UEAA@XZ
    ??1QsciLexerHTML@@UEAA@XZ
    ??1QsciLexerHex@@UEAA@XZ
    ??1QsciLexerIDL@@UEAA@XZ
    ??1QsciLexerIntelHex@@UEAA@XZ
    ??1QsciLexerJSON@@UEAA@XZ
    ??1QsciLexerJava@@UEAA@XZ
    ??1QsciLexerJavaScript@@UEAA@XZ
    ??1QsciLexerLisp@@UEAA@XZ
    ??1QsciLexerLog@@UEAA@XZ
    ??1QsciLexerLua@@UEAA@XZ
    ??1QsciLexerMASM@@UEAA@XZ
    ??1QsciLexerMakefile@@UEAA@XZ
    ??1QsciLexerMarkdown@@UEAA@XZ
    ??1QsciLexerMatlab@@UEAA@XZ
    ??1QsciLexerNASM@@UEAA@XZ
    ??1QsciLexerNsis@@UEAA@XZ
    ??1QsciLexerOctave@@UEAA@XZ
    ??1QsciLexerPO@@UEAA@XZ
    ??1QsciLexerPOV@@UEAA@XZ
    ??1QsciLexerPascal@@UEAA@XZ
    ??1QsciLexerPerl@@UEAA@XZ
    ??1QsciLexerPostScript@@UEAA@XZ
    ??1QsciLexerPowerShell@@UEAA@XZ
    ??1QsciLexerProperties@@UEAA@XZ
    ??1QsciLexerPython@@UEAA@XZ
    ??1QsciLexerR@@UEAA@XZ
    ??1QsciLexerRuby@@UEAA@XZ
    ??1QsciLexerRust@@UEAA@XZ
    ??1QsciLexerSQL@@UEAA@XZ
    ??1QsciLexerSRec@@UEAA@XZ
    ??1QsciLexerSpice@@UEAA@XZ
    ??1QsciLexerTCL@@UEAA@XZ
    ??1QsciLexerTeX@@UEAA@XZ
    ??1QsciLexerTekHex@@UEAA@XZ
    ??1QsciLexerText@@UEAA@XZ
    ??1QsciLexerVB@@UEAA@XZ
    ??1QsciLexerVHDL@@UEAA@XZ
    ??1QsciLexerVerilog@@UEAA@XZ
    ??1QsciLexerXML@@UEAA@XZ
    ??1QsciLexerYAML@@UEAA@XZ
    ??1QsciMacro@@UEAA@XZ
    ??1QsciPrinter@@UEAA@XZ
    ??1QsciScintilla@@UEAA@XZ
    ??1QsciScintillaBase@@UEAA@XZ
    ??1QsciStyle@@QEAA@XZ
    ??1QsciStyledText@@QEAA@XZ
    ??4KeyMap@Internal@Scintilla@@QEAAAEAV012@$$QEAV012@@Z
    ??4KeyMap@Internal@Scintilla@@QEAAAEAV012@AEBV012@@Z
    ??4KeyModifiers@Internal@Scintilla@@QEAAAEAV012@$$QEAV012@@Z
    ??4KeyModifiers@Internal@Scintilla@@QEAAAEAV012@AEBV012@@Z
    ??4KeyToCommand@Internal@Scintilla@@QEAAAEAV012@$$QEAV012@@Z
    ??4KeyToCommand@Internal@Scintilla@@QEAAAEAV012@AEBV012@@Z
    ??4QsciDocument@@QEAAAEAV0@AEBV0@@Z
    ??4QsciStyle@@QEAAAEAV0@$$QEAV0@@Z
    ??4QsciStyle@@QEAAAEAV0@AEBV0@@Z
    ??4QsciStyledText@@QEAAAEAV0@$$QEAV0@@Z
    ??4QsciStyledText@@QEAAAEAV0@AEBV0@@Z
    ??MKeyModifiers@Internal@Scintilla@@QEBA_NAEBV012@@Z
    ??_7Document@Internal@Scintilla@@6BIDocument@2@@
    ??_7Document@Internal@Scintilla@@6BIDocumentEditable@2@@
    ??_7Document@Internal@Scintilla@@6BILoader@2@@
    ??_7Document@Internal@Scintilla@@6BPerLine@12@@
    ??_7QsciAPIs@@6B@
    ??_7QsciAbstractAPIs@@6B@
    ??_7QsciDocument@@6B@
    ??_7QsciLexer@@6B@
    ??_7QsciLexerApdl@@6B@
    ??_7QsciLexerAsm@@6B@
    ??_7QsciLexerBash@@6B@
    ??_7QsciLexerBatch@@6B@
    ??_7QsciLexerCMake@@6B@
    ??_7QsciLexerCPP@@6B@
    ??_7QsciLexerCSS@@6B@
    ??_7QsciLexerCSharp@@6B@
    ??_7QsciLexerCoffeeScript@@6B@
    ??_7QsciLexerCustom@@6B@
    ??_7QsciLexerD@@6B@
    ??_7QsciLexerDiff@@6B@
    ??_7QsciLexerEDIFACT@@6B@
    ??_7QsciLexerFortran77@@6B@
    ??_7QsciLexerFortran@@6B@
    ??_7QsciLexerGCode@@6B@
    ??_7QsciLexerGO@@6B@
    ??_7QsciLexerGlobal@@6B@
    ??_7QsciLexerHTML@@6B@
    ??_7QsciLexerHex@@6B@
    ??_7QsciLexerIDL@@6B@
    ??_7QsciLexerIntelHex@@6B@
    ??_7QsciLexerJSON@@6B@
    ??_7QsciLexerJava@@6B@
    ??_7QsciLexerJavaScript@@6B@
    ??_7QsciLexerLisp@@6B@
    ??_7QsciLexerLog@@6B@
    ??_7QsciLexerLua@@6B@
    ??_7QsciLexerMASM@@6B@
    ??_7QsciLexerMakefile@@6B@
    ??_7QsciLexerMarkdown@@6B@
    ??_7QsciLexerMatlab@@6B@
    ??_7QsciLexerNASM@@6B@
    ??_7QsciLexerNsis@@6B@
    ??_7QsciLexerOctave@@6B@
    ??_7QsciLexerPO@@6B@
    ??_7QsciLexerPOV@@6B@
    ??_7QsciLexerPascal@@6B@
    ??_7QsciLexerPerl@@6B@
    ??_7QsciLexerPostScript@@6B@
    ??_7QsciLexerPowerShell@@6B@
    ??_7QsciLexerProperties@@6B@
    ??_7QsciLexerPython@@6B@
    ??_7QsciLexerR@@6B@
    ??_7QsciLexerRuby@@6B@
    ??_7QsciLexerRust@@6B@
    ??_7QsciLexerSQL@@6B@
    ??_7QsciLexerSRec@@6B@
    ??_7QsciLexerSpice@@6B@
    ??_7QsciLexerTCL@@6B@
    ??_7QsciLexerTeX@@6B@
    ??_7QsciLexerTekHex@@6B@
    ??_7QsciLexerText@@6B@
    ??_7QsciLexerVB@@6B@
    ??_7QsciLexerVHDL@@6B@
    ??_7QsciLexerVerilog@@6B@
    ??_7QsciLexerXML@@6B@
    ??_7QsciLexerYAML@@6B@
    ??_7QsciMacro@@6B@
    ??_7QsciPrinter@@6B@
    ??_7QsciScintilla@@6BQObject@@@
    ??_7QsciScintilla@@6BQPaintDevice@@@
    ??_7QsciScintillaBase@@6BQObject@@@
    ??_7QsciScintillaBase@@6BQPaintDevice@@@
    ??_FQsciLexer@@QEAAXXZ
    ??_FQsciLexerApdl@@QEAAXXZ
    ??_FQsciLexerAsm@@QEAAXXZ
    ??_FQsciLexerBash@@QEAAXXZ
    ??_FQsciLexerBatch@@QEAAXXZ
    ??_FQsciLexerCMake@@QEAAXXZ
    ??_FQsciLexerCPP@@QEAAXXZ
    ??_FQsciLexerCSS@@QEAAXXZ
    ??_FQsciLexerCSharp@@QEAAXXZ
    ??_FQsciLexerCoffeeScript@@QEAAXXZ
    ??_FQsciLexerCustom@@QEAAXXZ
    ??_FQsciLexerD@@QEAAXXZ
    ??_FQsciLexerDiff@@QEAAXXZ
    ??_FQsciLexerEDIFACT@@QEAAXXZ
    ??_FQsciLexerFortran77@@QEAAXXZ
    ??_FQsciLexerFortran@@QEAAXXZ
    ??_FQsciLexerGCode@@QEAAXXZ
    ??_FQsciLexerGO@@QEAAXXZ
    ??_FQsciLexerGlobal@@QEAAXXZ
    ??_FQsciLexerHTML@@QEAAXXZ
    ??_FQsciLexerHex@@QEAAXXZ
    ??_FQsciLexerIDL@@QEAAXXZ
    ??_FQsciLexerIntelHex@@QEAAXXZ
    ??_FQsciLexerJSON@@QEAAXXZ
    ??_FQsciLexerJava@@QEAAXXZ
    ??_FQsciLexerJavaScript@@QEAAXXZ
    ??_FQsciLexerLisp@@QEAAXXZ
    ??_FQsciLexerLog@@QEAAXXZ
    ??_FQsciLexerLua@@QEAAXXZ
    ??_FQsciLexerMASM@@QEAAXXZ
    ??_FQsciLexerMakefile@@QEAAXXZ
    ??_FQsciLexerMarkdown@@QEAAXXZ
    ??_FQsciLexerMatlab@@QEAAXXZ
    ??_FQsciLexerNASM@@QEAAXXZ
    ??_FQsciLexerNsis@@QEAAXXZ
    ??_FQsciLexerOctave@@QEAAXXZ
    ??_FQsciLexerPO@@QEAAXXZ
    ??_FQsciLexerPOV@@QEAAXXZ
    ??_FQsciLexerPascal@@QEAAXXZ
    ??_FQsciLexerPerl@@QEAAXXZ
    ??_FQsciLexerPostScript@@QEAAXXZ
    ??_FQsciLexerPowerShell@@QEAAXXZ
    ??_FQsciLexerProperties@@QEAAXXZ
    ??_FQsciLexerPython@@QEAAXXZ
    ??_FQsciLexerR@@QEAAXXZ
    ??_FQsciLexerRuby@@QEAAXXZ
    ??_FQsciLexerRust@@QEAAXXZ
    ??_FQsciLexerSQL@@QEAAXXZ
    ??_FQsciLexerSRec@@QEAAXXZ
    ??_FQsciLexerSpice@@QEAAXXZ
    ??_FQsciLexerTCL@@QEAAXXZ
    ??_FQsciLexerTeX@@QEAAXXZ
    ??_FQsciLexerTekHex@@QEAAXXZ
    ??_FQsciLexerText@@QEAAXXZ
    ??_FQsciLexerVB@@QEAAXXZ
    ??_FQsciLexerVHDL@@QEAAXXZ
    ??_FQsciLexerVerilog@@QEAAXXZ
    ??_FQsciLexerXML@@QEAAXXZ
    ??_FQsciLexerYAML@@QEAAXXZ
    ??_FQsciPrinter@@QEAAXXZ
    ??_FQsciScintilla@@QEAAXXZ
    ??_FQsciScintillaBase@@QEAAXXZ
    ??_FQsciStyle@@QEAAXXZ
    ?AddData@Document@Internal@Scintilla@@UEAAHPEBD_J@Z
    ?AddMark@Document@Internal@Scintilla@@QEAAH_JH@Z
    ?AddMarkSet@Document@Internal@Scintilla@@QEAAX_JH@Z
    ?AddRef@Document@Internal@Scintilla@@UEAAHXZ
    ?AddUndoAction@Document@Internal@Scintilla@@QEAAX_J_N@Z
    ?AddWatcher@Document@Internal@Scintilla@@QEAA_NPEAVDocWatcher@23@PEAX@Z
    ?Allocate@Document@Internal@Scintilla@@QEAAX_J@Z
    ?AllocateLineCharacterIndex@Document@Internal@Scintilla@@QEAAXW4LineCharacterIndexType@3@@Z
    ?AllocateLines@Document@Internal@Scintilla@@QEAAX_J@Z
    ?AnnotationClearAll@Document@Internal@Scintilla@@QEAAXXZ
    ?AnnotationLines@Document@Internal@Scintilla@@QEBAH_J@Z
    ?AnnotationSetStyle@Document@Internal@Scintilla@@QEAAX_JH@Z
    ?AnnotationSetStyles@Document@Internal@Scintilla@@QEAAX_JPEBE@Z
    ?AnnotationSetText@Document@Internal@Scintilla@@QEAAX_JPEBD@Z
    ?AnnotationStyledText@Document@Internal@Scintilla@@QEBA?AUStyledText@23@_J@Z
    ?Annotations@Document@Internal@Scintilla@@AEBAPEAVLineAnnotation@23@XZ
    ?AsDocumentEditable@Document@Internal@Scintilla@@QEAAPEAVIDocumentEditable@3@XZ
    ?AssignCmdKey@KeyMap@Internal@Scintilla@@QEAAXW4Keys@3@W4KeyMod@3@W4Message@3@@Z
    ?BeginUndoAction@Document@Internal@Scintilla@@QEAAX_N@Z
    ?BraceMatch@Document@Internal@Scintilla@@QEAA_J_J00_N@Z
    ?BufferPointer@Document@Internal@Scintilla@@UEAAPEBDXZ
    ?CanRedo@Document@Internal@Scintilla@@QEBA_NXZ
    ?CanUndo@Document@Internal@Scintilla@@QEBA_NXZ
    ?ChangeHistorySet@Document@Internal@Scintilla@@QEAAX_N@Z
    ?ChangeInsertion@Document@Internal@Scintilla@@QEAAXPEBD_J@Z
    ?ChangeLastUndoActionText@Document@Internal@Scintilla@@QEAAX_KPEBD@Z
    ?ChangeLexerState@Document@Internal@Scintilla@@UEAAX_J0@Z
    ?CharAt@Document@Internal@Scintilla@@QEBAD_J@Z
    ?CharacterAfter@Document@Internal@Scintilla@@QEBA?AUCharacterExtracted@23@_J@Z
    ?CharacterBefore@Document@Internal@Scintilla@@QEBA?AUCharacterExtracted@23@_J@Z
    ?CharacterCategoryOptimization@Document@Internal@Scintilla@@QEBAHXZ
    ?CheckReadOnly@Document@Internal@Scintilla@@QEAAXXZ
    ?ClampPositionIntoDocument@Document@Internal@Scintilla@@QEBA_J_J@Z
    ?Clear@KeyMap@Internal@Scintilla@@QEAAXXZ
    ?ClearLevels@Document@Internal@Scintilla@@QEAAXXZ
    ?CodePage@Document@Internal@Scintilla@@UEBAHXZ
    ?CodePageFamily@Document@Internal@Scintilla@@QEBA?AW4EncodingFamily@23@XZ
    ?ContainsLineEnd@Document@Internal@Scintilla@@QEBA_NPEBD_J@Z
    ?ConvertLineEnds@Document@Internal@Scintilla@@QEAAXW4EndOfLine@3@@Z
    ?ConvertToDocument@Document@Internal@Scintilla@@UEAAPEAXXZ
    ?CountCharacters@Document@Internal@Scintilla@@QEBA_J_J0@Z
    ?CountUTF16@Document@Internal@Scintilla@@QEBA_J_J0@Z
    ?DBCSDrawBytes@Document@Internal@Scintilla@@QEBAHV?$basic_string_view@DU?$char_traits@D@std@@@std@@@Z
    ?DEVersion@Document@Internal@Scintilla@@UEBAHXZ
    ?DecorationFillRange@Document@Internal@Scintilla@@UEAAX_JH0@Z
    ?DecorationSetCurrentIndicator@Document@Internal@Scintilla@@UEAAXH@Z
    ?DelChar@Document@Internal@Scintilla@@QEAAX_J@Z
    ?DelCharBack@Document@Internal@Scintilla@@QEAAX_J@Z
    ?DeleteAllMarks@Document@Internal@Scintilla@@QEAAXH@Z
    ?DeleteChars@Document@Internal@Scintilla@@QEAA_N_J0@Z
    ?DeleteMark@Document@Internal@Scintilla@@QEAAX_JH@Z
    ?DeleteMarkFromHandle@Document@Internal@Scintilla@@QEAAXH@Z
    ?DeleteUndoHistory@Document@Internal@Scintilla@@QEAAXXZ
    ?EOLAnnotationClearAll@Document@Internal@Scintilla@@QEAAXXZ
    ?EOLAnnotationSetStyle@Document@Internal@Scintilla@@QEAAX_JH@Z
    ?EOLAnnotationSetText@Document@Internal@Scintilla@@QEAAX_JPEBD@Z
    ?EOLAnnotationStyledText@Document@Internal@Scintilla@@QEBA?AUStyledText@23@_J@Z
    ?EOLAnnotations@Document@Internal@Scintilla@@AEBAPEAVLineAnnotation@23@XZ
    ?EOLString@Document@Internal@Scintilla@@QEBA?AV?$basic_string_view@DU?$char_traits@D@std@@@std@@XZ
    ?EditionAt@Document@Internal@Scintilla@@QEBAH_J@Z
    ?EditionDeletesAt@Document@Internal@Scintilla@@QEBAI_J@Z
    ?EditionEndRun@Document@Internal@Scintilla@@QEBA_J_J@Z
    ?EditionNextDelete@Document@Internal@Scintilla@@QEBA_J_J@Z
    ?EndUndoAction@Document@Internal@Scintilla@@QEAAXXZ
    ?EnsureStyledTo@Document@Internal@Scintilla@@QEAAX_J@Z
    ?ExtendStyleRange@Document@Internal@Scintilla@@QEAA_J_JH_N@Z
    ?ExtendWordSelect@Document@Internal@Scintilla@@QEBA_J_JH_N@Z
    ?ExtractCharacter@Document@Internal@Scintilla@@QEBA?AUCharacterExtracted@23@_J@Z
    ?Find@KeyMap@Internal@Scintilla@@QEBA?AW4Message@3@W4Keys@3@W4KeyMod@3@@Z
    ?FindColumn@Document@Internal@Scintilla@@QEAA_J_J0@Z
    ?FindText@Document@Internal@Scintilla@@QEAA_J_J0PEBDW4FindOption@3@PEA_J@Z
    ?GapPosition@Document@Internal@Scintilla@@QEBA_JXZ
    ?GetCharRange@Document@Internal@Scintilla@@UEBAXPEAD_J1@Z
    ?GetCharacterAndWidth@Document@Internal@Scintilla@@UEBAH_JPEA_J@Z
    ?GetCharsOfClass@Document@Internal@Scintilla@@QEBAHW4CharacterClass@23@PEAE@Z
    ?GetColumn@Document@Internal@Scintilla@@QEBA_J_J@Z
    ?GetEndStyled@Document@Internal@Scintilla@@QEBA_JXZ
    ?GetFoldLevel@Document@Internal@Scintilla@@QEBA?AW4FoldLevel@3@_J@Z
    ?GetFoldParent@Document@Internal@Scintilla@@QEBA_J_J@Z
    ?GetHighlightDelimiters@Document@Internal@Scintilla@@QEAAXAEAVHighlightDelimiter@23@_J1@Z
    ?GetKeyMap@KeyMap@Internal@Scintilla@@QEBAAEBV?$map@VKeyModifiers@Internal@Scintilla@@W4Message@3@U?$less@VKeyModifiers@Internal@Scintilla@@@std@@V?$allocator@U?$pair@$$CBVKeyModifiers@Internal@Scintilla@@W4Message@3@@std@@@6@@std@@XZ
    ?GetLastChild@Document@Internal@Scintilla@@QEAA_J_JV?$optional@W4FoldLevel@Scintilla@@@std@@0@Z
    ?GetLevel@Document@Internal@Scintilla@@UEBAH_J@Z
    ?GetLexInterface@Document@Internal@Scintilla@@QEBAPEAVLexInterface@23@XZ
    ?GetLineEndTypesActive@Document@Internal@Scintilla@@QEBA?AW4LineEndType@3@XZ
    ?GetLineEndTypesAllowed@Document@Internal@Scintilla@@QEBA?AW4LineEndType@3@XZ
    ?GetLineIndentPosition@Document@Internal@Scintilla@@QEBA_J_J@Z
    ?GetLineIndentation@Document@Internal@Scintilla@@UEAAH_J@Z
    ?GetLineState@Document@Internal@Scintilla@@UEBAH_J@Z
    ?GetMark@Document@Internal@Scintilla@@QEBAH_J_N@Z
    ?GetMaxLineState@Document@Internal@Scintilla@@QEBA_JXZ
    ?GetRelativePosition@Document@Internal@Scintilla@@UEBA_J_J0@Z
    ?GetRelativePositionUTF16@Document@Internal@Scintilla@@QEBA_J_J0@Z
    ?GetStyleClock@Document@Internal@Scintilla@@QEBAHXZ
    ?GetStyleRange@Document@Internal@Scintilla@@QEBAXPEAE_J1@Z
    ?HSSLanguage@QsciLexerCSS@@QEBA_NXZ
    ?HasCaseFolder@Document@Internal@Scintilla@@QEBA_NXZ
    ?InGoodUTF8@Document@Internal@Scintilla@@QEBA_N_JAEA_J1@Z
    ?IncrementStyleClock@Document@Internal@Scintilla@@QEAAXXZ
    ?Indent@Document@Internal@Scintilla@@QEAAX_N_J1@Z
    ?IndentSize@Document@Internal@Scintilla@@QEBAHXZ
    ?IndexLineStart@Document@Internal@Scintilla@@QEBA_J_JW4LineCharacterIndexType@3@@Z
    ?Init@Document@Internal@Scintilla@@UEAAXXZ
    ?InsertLine@Document@Internal@Scintilla@@UEAAX_J@Z
    ?InsertLines@Document@Internal@Scintilla@@UEAAX_J0@Z
    ?InsertString@Document@Internal@Scintilla@@QEAA_J_JPEBD0@Z
    ?InsertString@Document@Internal@Scintilla@@QEAA_J_JV?$basic_string_view@DU?$char_traits@D@std@@@std@@@Z
    ?IsCollectingUndo@Document@Internal@Scintilla@@QEBA_NXZ
    ?IsCrLf@Document@Internal@Scintilla@@QEBA_N_J@Z
    ?IsDBCSDualByteAt@Document@Internal@Scintilla@@QEBA_N_J@Z
    ?IsDBCSLeadByte@Document@Internal@Scintilla@@UEBA_ND@Z
    ?IsDBCSLeadByteNoExcept@Document@Internal@Scintilla@@QEBA_ND@Z
    ?IsDBCSTrailByteNoExcept@Document@Internal@Scintilla@@QEBA_ND@Z
    ?IsLarge@Document@Internal@Scintilla@@QEBA_NXZ
    ?IsLineEndPosition@Document@Internal@Scintilla@@QEBA_N_J@Z
    ?IsLineStartPosition@Document@Internal@Scintilla@@QEBA_N_J@Z
    ?IsPositionInLineEnd@Document@Internal@Scintilla@@QEBA_N_J@Z
    ?IsReadOnly@Document@Internal@Scintilla@@QEBA_NXZ
    ?IsSavePoint@Document@Internal@Scintilla@@QEBA_NXZ
    ?IsWhiteLine@Document@Internal@Scintilla@@QEBA_N_J@Z
    ?IsWordAt@Document@Internal@Scintilla@@QEBA_N_J0@Z
    ?IsWordEndAt@Document@Internal@Scintilla@@QEBA_N_J@Z
    ?IsWordPartSeparator@Document@Internal@Scintilla@@QEBA_NI@Z
    ?IsWordStartAt@Document@Internal@Scintilla@@QEBA_N_J@Z
    ?LenChar@Document@Internal@Scintilla@@QEBAH_J@Z
    ?Length@Document@Internal@Scintilla@@UEBA_JXZ
    ?LengthNoExcept@Document@Internal@Scintilla@@QEBA_JXZ
    ?LessLanguage@QsciLexerCSS@@QEBA_NXZ
    ?Levels@Document@Internal@Scintilla@@AEBAPEAVLineLevels@23@XZ
    ?LexerChanged@Document@Internal@Scintilla@@QEAAXXZ
    ?LineCharacterIndex@Document@Internal@Scintilla@@QEBA?AW4LineCharacterIndexType@3@XZ
    ?LineEnd@Document@Internal@Scintilla@@UEBA_J_J@Z
    ?LineEndPosition@Document@Internal@Scintilla@@QEBA_J_J@Z
    ?LineEndTypesSupported@Document@Internal@Scintilla@@QEBA?AW4LineEndType@3@XZ
    ?LineFromHandle@Document@Internal@Scintilla@@QEBA_JH@Z
    ?LineFromPosition@Document@Internal@Scintilla@@UEBA_J_J@Z
    ?LineFromPositionAfter@Document@Internal@Scintilla@@QEBA_J_J0@Z
    ?LineFromPositionIndex@Document@Internal@Scintilla@@QEBA_J_JW4LineCharacterIndexType@3@@Z
    ?LineRange@Document@Internal@Scintilla@@QEBA?AVRange@23@_J@Z
    ?LineStart@Document@Internal@Scintilla@@UEBA_J_J@Z
    ?LineStartPosition@Document@Internal@Scintilla@@QEBA_J_J@Z
    ?LinesTotal@Document@Internal@Scintilla@@QEBA_JXZ
    ?MapDefault@KeyMap@Internal@Scintilla@@0QBVKeyToCommand@23@B
    ?MarginClearAll@Document@Internal@Scintilla@@QEAAXXZ
    ?MarginSetStyle@Document@Internal@Scintilla@@QEAAX_JH@Z
    ?MarginSetStyles@Document@Internal@Scintilla@@QEAAX_JPEBE@Z
    ?MarginSetText@Document@Internal@Scintilla@@QEAAX_JPEBD@Z
    ?MarginStyledText@Document@Internal@Scintilla@@QEBA?AUStyledText@23@_J@Z
    ?Margins@Document@Internal@Scintilla@@AEBAPEAVLineAnnotation@23@XZ
    ?MarkerHandleFromLine@Document@Internal@Scintilla@@QEBAH_JH@Z
    ?MarkerNext@Document@Internal@Scintilla@@QEBA_J_JH@Z
    ?MarkerNumberFromLine@Document@Internal@Scintilla@@QEBAH_JH@Z
    ?Markers@Document@Internal@Scintilla@@AEBAPEAVLineMarkers@23@XZ
    ?MatchesWordOptions@Document@Internal@Scintilla@@QEBA_N_N0_J1@Z
    ?ModifiedAt@Document@Internal@Scintilla@@QEAAX_J@Z
    ?MovePositionOutsideChar@Document@Internal@Scintilla@@QEBA_J_J0_N@Z
    ?NextCharacter@Document@Internal@Scintilla@@QEBA_NAEA_JH@Z
    ?NextPosition@Document@Internal@Scintilla@@QEBA_J_JH@Z
    ?NextWordEnd@Document@Internal@Scintilla@@QEBA_J_JH@Z
    ?NextWordStart@Document@Internal@Scintilla@@QEBA_J_JH@Z
    ?NotifyModified@Document@Internal@Scintilla@@AEAAXVDocModification@23@@Z
    ?NotifyModifyAttempt@Document@Internal@Scintilla@@AEAAXXZ
    ?NotifySavePoint@Document@Internal@Scintilla@@AEAAX_N@Z
    ?Options@Document@Internal@Scintilla@@QEBA?AW4DocumentOption@3@XZ
    ?ParaDown@Document@Internal@Scintilla@@QEBA_J_J@Z
    ?ParaUp@Document@Internal@Scintilla@@QEBA_J_J@Z
    ?PushUndoActionType@Document@Internal@Scintilla@@QEAAXH_J@Z
    ?QSCN_SELCHANGED@QsciScintillaBase@@QEAAX_N@Z
    ?RangePointer@Document@Internal@Scintilla@@QEAAPEBD_J0@Z
    ?Redo@Document@Internal@Scintilla@@QEAA_JXZ
    ?Release@Document@Internal@Scintilla@@UEAAHXZ
    ?ReleaseLineCharacterIndex@Document@Internal@Scintilla@@QEAAXW4LineCharacterIndexType@3@@Z
    ?RemoveLine@Document@Internal@Scintilla@@UEAAX_J@Z
    ?RemoveWatcher@Document@Internal@Scintilla@@QEAA_NPEAVDocWatcher@23@PEAX@Z
    ?SCEN_CHANGE@QsciScintillaBase@@QEAAXXZ
    ?SCN_AUTOCCANCELLED@QsciScintillaBase@@QEAAXXZ
    ?SCN_AUTOCCHARDELETED@QsciScintillaBase@@QEAAXXZ
    ?SCN_AUTOCCOMPLETED@QsciScintillaBase@@QEAAXPEBDHHH@Z
    ?SCN_AUTOCSELECTION@QsciScintillaBase@@QEAAXPEBDH@Z
    ?SCN_AUTOCSELECTION@QsciScintillaBase@@QEAAXPEBDHHH@Z
    ?SCN_AUTOCSELECTIONCHANGE@QsciScintillaBase@@QEAAXPEBDHH@Z
    ?SCN_CALLTIPCLICK@QsciScintillaBase@@QEAAXH@Z
    ?SCN_CHARADDED@QsciScintillaBase@@QEAAXH@Z
    ?SCN_DOUBLECLICK@QsciScintillaBase@@QEAAXHHH@Z
    ?SCN_DWELLEND@QsciScintillaBase@@QEAAXHHH@Z
    ?SCN_DWELLSTART@QsciScintillaBase@@QEAAXHHH@Z
    ?SCN_FOCUSIN@QsciScintillaBase@@QEAAXXZ
    ?SCN_FOCUSOUT@QsciScintillaBase@@QEAAXXZ
    ?SCN_HOTSPOTCLICK@QsciScintillaBase@@QEAAXHH@Z
    ?SCN_HOTSPOTDOUBLECLICK@QsciScintillaBase@@QEAAXHH@Z
    ?SCN_HOTSPOTRELEASECLICK@QsciScintillaBase@@QEAAXHH@Z
    ?SCN_INDICATORCLICK@QsciScintillaBase@@QEAAXHH@Z
    ?SCN_INDICATORRELEASE@QsciScintillaBase@@QEAAXHH@Z
    ?SCN_MACRORECORD@QsciScintillaBase@@QEAAXIKPEAX@Z
    ?SCN_MARGINCLICK@QsciScintillaBase@@QEAAXHHH@Z
    ?SCN_MARGINRIGHTCLICK@QsciScintillaBase@@QEAAXHHH@Z
    ?SCN_MODIFIED@QsciScintillaBase@@QEAAXHHPEBDHHHHHHH@Z
    ?SCN_MODIFYATTEMPTRO@QsciScintillaBase@@QEAAXXZ
    ?SCN_NEEDSHOWN@QsciScintillaBase@@QEAAXHH@Z
    ?SCN_PAINTED@QsciScintillaBase@@QEAAXXZ
    ?SCN_SAVEPOINTLEFT@QsciScintillaBase@@QEAAXXZ
    ?SCN_SAVEPOINTREACHED@QsciScintillaBase@@QEAAXXZ
    ?SCN_STYLENEEDED@QsciScintillaBase@@QEAAXH@Z
    ?SCN_UPDATEUI@QsciScintillaBase@@QEAAXH@Z
    ?SCN_URIDROPPED@QsciScintillaBase@@QEAAXAEBVQUrl@@@Z
    ?SCN_USERLISTSELECTION@QsciScintillaBase@@QEAAXPEBDH@Z
    ?SCN_USERLISTSELECTION@QsciScintillaBase@@QEAAXPEBDHHH@Z
    ?SCN_USERLISTSELECTION@QsciScintillaBase@@QEAAXPEBDHHHH@Z
    ?SCN_ZOOM@QsciScintillaBase@@QEAAXXZ
    ?SCSSLanguage@QsciLexerCSS@@QEBA_NXZ
    ?SafeSegment@Document@Internal@Scintilla@@QEBA_KV?$basic_string_view@DU?$char_traits@D@std@@@std@@@Z
    ?SciLineFromPosition@Document@Internal@Scintilla@@QEBA_J_J@Z
    ?SendScintilla@QsciScintillaBase@@QEBAJIAEBVQColor@@@Z
    ?SendScintilla@QsciScintillaBase@@QEBAJIH@Z
    ?SendScintilla@QsciScintillaBase@@QEBAJIJ@Z
    ?SendScintilla@QsciScintillaBase@@QEBAJIJJPEAD@Z
    ?SendScintilla@QsciScintillaBase@@QEBAJIKAEBVQColor@@@Z
    ?SendScintilla@QsciScintillaBase@@QEBAJIKAEBVQImage@@@Z
    ?SendScintilla@QsciScintillaBase@@QEBAJIKAEBVQPixmap@@@Z
    ?SendScintilla@QsciScintillaBase@@QEBAJIKJ@Z
    ?SendScintilla@QsciScintillaBase@@QEBAJIKPEAVQPainter@@AEBVQRect@@JJ@Z
    ?SendScintilla@QsciScintillaBase@@QEBAJIKPEAX@Z
    ?SendScintilla@QsciScintillaBase@@QEBAJIPEBD0@Z
    ?SendScintilla@QsciScintillaBase@@QEBAJIPEBD@Z
    ?SendScintilla@QsciScintillaBase@@QEBAJI_KPEBD@Z
    ?SendScintillaPtrResult@QsciScintillaBase@@QEBAPEAXI@Z
    ?SetCaseFolder@Document@Internal@Scintilla@@QEAAXV?$unique_ptr@VCaseFolder@Internal@Scintilla@@U?$default_delete@VCaseFolder@Internal@Scintilla@@@std@@@std@@@Z
    ?SetCharClasses@Document@Internal@Scintilla@@QEAAXPEBEW4CharacterClass@23@@Z
    ?SetCharacterCategoryOptimization@Document@Internal@Scintilla@@QEAAXH@Z
    ?SetDBCSCodePage@Document@Internal@Scintilla@@QEAA_NH@Z
    ?SetDefaultCharClasses@Document@Internal@Scintilla@@QEAAX_N@Z
    ?SetErrorStatus@Document@Internal@Scintilla@@UEAAXH@Z
    ?SetLevel@Document@Internal@Scintilla@@UEAAH_JH@Z
    ?SetLexInterface@Document@Internal@Scintilla@@QEAAXV?$unique_ptr@VLexInterface@Internal@Scintilla@@U?$default_delete@VLexInterface@Internal@Scintilla@@@std@@@std@@@Z
    ?SetLineEndTypesAllowed@Document@Internal@Scintilla@@QEAA_NW4LineEndType@3@@Z
    ?SetLineIndentation@Document@Internal@Scintilla@@QEAA_J_J0@Z
    ?SetLineState@Document@Internal@Scintilla@@UEAAH_JH@Z
    ?SetReadOnly@Document@Internal@Scintilla@@QEAAX_N@Z
    ?SetSavePoint@Document@Internal@Scintilla@@QEAAXXZ
    ?SetStyleFor@Document@Internal@Scintilla@@UEAA_N_JD@Z
    ?SetStyles@Document@Internal@Scintilla@@UEAA_N_JPEBD@Z
    ?SetUndoCollection@Document@Internal@Scintilla@@QEAA_N_N@Z
    ?SetUndoCurrent@Document@Internal@Scintilla@@QEAAXH@Z
    ?SetUndoDetach@Document@Internal@Scintilla@@QEAAXH@Z
    ?SetUndoSavePoint@Document@Internal@Scintilla@@QEAAXH@Z
    ?SetUndoTentative@Document@Internal@Scintilla@@QEAAXH@Z
    ?StartStyling@Document@Internal@Scintilla@@UEAAX_J@Z
    ?States@Document@Internal@Scintilla@@AEBAPEAVLineState@23@XZ
    ?StyleAt@Document@Internal@Scintilla@@UEBAD_J@Z
    ?StyleAtNoExcept@Document@Internal@Scintilla@@QEBAD_J@Z
    ?StyleIndexAt@Document@Internal@Scintilla@@QEBAH_J@Z
    ?StyleToAdjustingLineDuration@Document@Internal@Scintilla@@QEAAX_J@Z
    ?SubstituteByPosition@Document@Internal@Scintilla@@QEAAPEBDPEBDPEA_J@Z
    ?TentativeActive@Document@Internal@Scintilla@@QEBA_NXZ
    ?TentativeCommit@Document@Internal@Scintilla@@QEAAXXZ
    ?TentativeStart@Document@Internal@Scintilla@@QEAAXXZ
    ?TentativeUndo@Document@Internal@Scintilla@@QEAAXXZ
    ?TransformLineEnds@Document@Internal@Scintilla@@SA?AV?$basic_string@DU?$char_traits@D@std@@V?$allocator@D@2@@std@@PEBD_KW4EndOfLine@3@@Z
    ?TrimReplacement@Document@Internal@Scintilla@@QEBAXAEAV?$basic_string_view@DU?$char_traits@D@std@@@std@@AEAVRange@23@@Z
    ?UTF8Classify@Internal@Scintilla@@YAHPEBE_K@Z
    ?Undo@Document@Internal@Scintilla@@QEAA_JXZ
    ?UndoActionPosition@Document@Internal@Scintilla@@QEBA_JH@Z
    ?UndoActionText@Document@Internal@Scintilla@@QEBA?AV?$basic_string_view@DU?$char_traits@D@std@@@std@@H@Z
    ?UndoActionType@Document@Internal@Scintilla@@QEBAHH@Z
    ?UndoActions@Document@Internal@Scintilla@@QEBAHXZ
    ?UndoCurrent@Document@Internal@Scintilla@@QEBAHXZ
    ?UndoDetach@Document@Internal@Scintilla@@QEBAHXZ
    ?UndoSavePoint@Document@Internal@Scintilla@@QEBAHXZ
    ?UndoSequenceDepth@Document@Internal@Scintilla@@QEBAHXZ
    ?UndoTentative@Document@Internal@Scintilla@@QEBAHXZ
    ?VCHomePosition@Document@Internal@Scintilla@@QEBA_J_J@Z
    ?Version@Document@Internal@Scintilla@@UEBAHXZ
    ?WordCharacterClass@Document@Internal@Scintilla@@QEBA?AW4CharacterClass@23@I@Z
    ?WordPartLeft@Document@Internal@Scintilla@@QEBA_J_J@Z
    ?WordPartRight@Document@Internal@Scintilla@@QEBA_J_J@Z
    ?acceptAction@QsciScintillaBase@@AEAAXPEAVQDropEvent@@@Z
    ?add@QsciAPIs@@QEAAXAEBVQString@@@Z
    ?addAPIEntries@QsciAPIs@@AEAAXAEBV?$QList@U?$QPair@II@@@@_NAEAVQStringList@@AEA_N@Z
    ?addEdgeColumn@QsciScintilla@@QEAAXHAEBVQColor@@@Z
    ?addHotSpot@QsciScintilla@@MEAAXXZ
    ?adjustedCallTipPosition@QsciScintilla@@AEBAHH@Z
    ?allocateId@QsciScintilla@@CAXAEAHAEAIHH@Z
    ?alternateKey@QsciCommand@@QEBAHXZ
    ?annotate@QsciScintilla@@QEAAXHAEBV?$QList@VQsciStyledText@@@@@Z
    ?annotate@QsciScintilla@@QEAAXHAEBVQString@@AEBVQsciStyle@@@Z
    ?annotate@QsciScintilla@@QEAAXHAEBVQString@@H@Z
    ?annotate@QsciScintilla@@QEAAXHAEBVQsciStyledText@@@Z
    ?annotation@QsciScintilla@@QEBA?AVQString@@H@Z
    ?annotationDisplay@QsciScintilla@@QEBA?AW4AnnotationDisplay@1@XZ
    ?apiContext@QsciScintilla@@UEAA?AVQStringList@@HAEAH0@Z
    ?apiPreparationCancelled@QsciAPIs@@QEAAXXZ
    ?apiPreparationFinished@QsciAPIs@@QEAAXXZ
    ?apiPreparationStarted@QsciAPIs@@QEAAXXZ
    ?apis@QsciLexer@@QEBAPEAVQsciAbstractAPIs@@XZ
    ?append@QsciScintilla@@UEAAXAEBVQString@@@Z
    ?apply@QsciStyle@@QEBAXPEAVQsciScintillaBase@@@Z
    ?apply@QsciStyledText@@QEBAXPEAVQsciScintillaBase@@@Z
    ?attach@QsciDocument@@AEAAXAEBV1@@Z
    ?autoCompleteFromAPIs@QsciScintilla@@UEAAXXZ
    ?autoCompleteFromAll@QsciScintilla@@UEAAXXZ
    ?autoCompleteFromDocument@QsciScintilla@@UEAAXXZ
    ?autoCompletionCaseSensitivity@QsciScintilla@@QEBA_NXZ
    ?autoCompletionFillups@QsciLexer@@UEBAPEBDXZ
    ?autoCompletionFillups@QsciLexerHTML@@UEBAPEBDXZ
    ?autoCompletionFillupsEnabled@QsciScintilla@@QEBA_NXZ
    ?autoCompletionReplaceWord@QsciScintilla@@QEBA_NXZ
    ?autoCompletionSelected@QsciAPIs@@UEAAXAEBVQString@@@Z
    ?autoCompletionSelected@QsciAbstractAPIs@@UEAAXAEBVQString@@@Z
    ?autoCompletionShowSingle@QsciScintilla@@QEBA_NXZ
    ?autoCompletionSource@QsciScintilla@@QEBA?AW4AutoCompletionSource@1@XZ
    ?autoCompletionThreshold@QsciScintilla@@QEBAHXZ
    ?autoCompletionUseSingle@QsciScintilla@@QEBA?AW4AutoCompletionUseSingle@1@XZ
    ?autoCompletionWordSeparators@QsciLexer@@UEBA?AVQStringList@@XZ
    ?autoCompletionWordSeparators@QsciLexerCPP@@UEBA?AVQStringList@@XZ
    ?autoCompletionWordSeparators@QsciLexerCoffeeScript@@UEBA?AVQStringList@@XZ
    ?autoCompletionWordSeparators@QsciLexerD@@UEBA?AVQStringList@@XZ
    ?autoCompletionWordSeparators@QsciLexerLua@@UEBA?AVQStringList@@XZ
    ?autoCompletionWordSeparators@QsciLexerPascal@@UEBA?AVQStringList@@XZ
    ?autoCompletionWordSeparators@QsciLexerPerl@@UEBA?AVQStringList@@XZ
    ?autoCompletionWordSeparators@QsciLexerPython@@UEBA?AVQStringList@@XZ
    ?autoIndent@QsciScintilla@@QEBA_NXZ
    ?autoIndentLine@QsciScintilla@@AEAAXJHH@Z
    ?autoIndentStyle@QsciLexer@@QEAAHXZ
    ?autoIndentation@QsciScintilla@@AEAAXDJ@Z
    ?backslashEscapes@QsciLexerSQL@@QEBA_NXZ
    ?backspaceUnindents@QsciScintilla@@QEBA_NXZ
    ?beginUndoAction@QsciScintilla@@QEAAXXZ
    ?bindKey@QsciCommand@@AEAAXHAEAH0@Z
    ?blockEnd@QsciLexer@@UEBAPEBDPEAH@Z
    ?blockEnd@QsciLexerCPP@@UEBAPEBDPEAH@Z
    ?blockEnd@QsciLexerCSS@@UEBAPEBDPEAH@Z
    ?blockEnd@QsciLexerCoffeeScript@@UEBAPEBDPEAH@Z
    ?blockEnd@QsciLexerD@@UEBAPEBDPEAH@Z
    ?blockEnd@QsciLexerPascal@@UEBAPEBDPEAH@Z
    ?blockEnd@QsciLexerPerl@@UEBAPEBDPEAH@Z
    ?blockEnd@QsciLexerRuby@@UEBAPEBDPEAH@Z
    ?blockIndent@QsciScintilla@@AEAAHH@Z
    ?blockLookback@QsciLexer@@UEBAHXZ
    ?blockLookback@QsciLexerPython@@UEBAHXZ
    ?blockStart@QsciLexer@@UEBAPEBDPEAH@Z
    ?blockStart@QsciLexerCPP@@UEBAPEBDPEAH@Z
    ?blockStart@QsciLexerCSS@@UEBAPEBDPEAH@Z
    ?blockStart@QsciLexerCoffeeScript@@UEBAPEBDPEAH@Z
    ?blockStart@QsciLexerD@@UEBAPEBDPEAH@Z
    ?blockStart@QsciLexerLua@@UEBAPEBDPEAH@Z
    ?blockStart@QsciLexerPascal@@UEBAPEBDPEAH@Z
    ?blockStart@QsciLexerPerl@@UEBAPEBDPEAH@Z
    ?blockStart@QsciLexerPython@@UEBAPEBDPEAH@Z
    ?blockStart@QsciLexerRuby@@UEBAPEBDPEAH@Z
    ?blockStartKeyword@QsciLexer@@UEBAPEBDPEAH@Z
    ?blockStartKeyword@QsciLexerCPP@@UEBAPEBDPEAH@Z
    ?blockStartKeyword@QsciLexerCoffeeScript@@UEBAPEBDPEAH@Z
    ?blockStartKeyword@QsciLexerD@@UEBAPEBDPEAH@Z
    ?blockStartKeyword@QsciLexerPascal@@UEBAPEBDPEAH@Z
    ?blockStartKeyword@QsciLexerRuby@@UEBAPEBDPEAH@Z
    ?boundTo@QsciCommandSet@@QEBAPEAVQsciCommand@@H@Z
    ?braceMatch@QsciScintilla@@AEAAXXZ
    ?braceMatching@QsciScintilla@@QEBA?AW4BraceMatch@1@XZ
    ?braceStyle@QsciLexer@@UEBAHXZ
    ?braceStyle@QsciLexerBash@@UEBAHXZ
    ?braceStyle@QsciLexerCPP@@UEBAHXZ
    ?braceStyle@QsciLexerCoffeeScript@@UEBAHXZ
    ?braceStyle@QsciLexerD@@UEBAHXZ
    ?braceStyle@QsciLexerFortran77@@UEBAHXZ
    ?braceStyle@QsciLexerLua@@UEBAHXZ
    ?braceStyle@QsciLexerPOV@@UEBAHXZ
    ?braceStyle@QsciLexerPascal@@UEBAHXZ
    ?braceStyle@QsciLexerPerl@@UEBAHXZ
    ?braceStyle@QsciLexerPostScript@@UEBAHXZ
    ?braceStyle@QsciLexerPython@@UEBAHXZ
    ?braceStyle@QsciLexerRuby@@UEBAHXZ
    ?braceStyle@QsciLexerSQL@@UEBAHXZ
    ?braceStyle@QsciLexerSpice@@UEBAHXZ
    ?braceStyle@QsciLexerTCL@@UEBAHXZ
    ?braceStyle@QsciLexerVHDL@@UEBAHXZ
    ?braceStyle@QsciLexerVerilog@@UEBAHXZ
    ?bytes@QsciScintilla@@QEBA?AVQByteArray@@HH@Z
    ?bytesAsText@QsciLexer@@IEBA?AVQString@@PEBDH@Z
    ?bytesAsText@QsciScintillaBase@@IEBA?AVQString@@PEBD@Z
    ?bytesAsText@QsciScintillaBase@@IEBA?AVQString@@PEBDH@Z
    ?callTip@QsciScintilla@@UEAAXXZ
    ?callTips@QsciAPIs@@UEAA?AVQStringList@@AEBV2@HW4CallTipsStyle@QsciScintilla@@AEAV?$QList@H@@@Z
    ?callTipsPosition@QsciScintilla@@QEBA?AW4CallTipsPosition@1@XZ
    ?callTipsStyle@QsciScintilla@@QEBA?AW4CallTipsStyle@1@XZ
    ?callTipsVisible@QsciScintilla@@QEBAHXZ
    ?canInsertFromMimeData@QsciScintillaBase@@MEBA_NPEBVQMimeData@@@Z
    ?cancelList@QsciScintilla@@QEAAXXZ
    ?cancelPreparation@QsciAPIs@@QEAAXXZ
    ?caseSensitive@QsciLexer@@UEBA_NXZ
    ?caseSensitive@QsciLexerBatch@@UEBA_NXZ
    ?caseSensitive@QsciScintilla@@QEBA_NXZ
    ?caseSensitiveTags@QsciLexerHTML@@QEBA_NXZ
    ?changeEvent@QsciScintilla@@MEAAXPEAVQEvent@@@Z
    ?changeEvent@QsciScintillaBase@@MEAAXPEAVQEvent@@@Z
    ?changeOpenWithQuickMode@QsciScintillaBase@@MEAAXXZ
    ?changeOperBit@QsciLexerGlobal@@QEBAHH@Z
    ?changeable@QsciStyle@@QEBA_NXZ
    ?checkAndSetStyleDefaults@QsciLexer@@AEBAXXZ
    ?checkBrace@QsciScintilla@@AEAAJJHAEA_N@Z
    ?checkIndicator@QsciScintilla@@AEAAXAEAH@Z
    ?checkMarker@QsciScintilla@@AEAAXAEAH@Z
    ?clear@QsciAPIs@@QEAAXXZ
    ?clear@QsciMacro@@QEAAXXZ
    ?clear@QsciScintilla@@UEAAXXZ
    ?clearAlternateKeys@QsciCommandSet@@QEAAXXZ
    ?clearAnnotations@QsciScintilla@@QEAAXH@Z
    ?clearEdgeColumns@QsciScintilla@@QEAAXXZ
    ?clearFolds@QsciScintilla@@QEAAXXZ
    ?clearIndicatorRange@QsciScintilla@@QEAAXHHHHH@Z
    ?clearKeys@QsciCommandSet@@QEAAXXZ
    ?clearMarginText@QsciScintilla@@QEAAXH@Z
    ?clearRegisteredImages@QsciScintilla@@QEAAXXZ
    ?color@QsciLexer@@UEBA?AVQColor@@H@Z
    ?color@QsciScintilla@@QEBA?AVQColor@@XZ
    ?color@QsciStyle@@QEBA?AVQColor@@XZ
    ?colorChanged@QsciLexer@@QEAAXAEBVQColor@@H@Z
    ?command@QsciCommand@@QEBA?AW4Command@1@XZ
    ?commandKey@QsciScintillaBase@@SAHHAEAH@Z
    ?commands@QsciCommandSet@@QEAAAEAV?$QList@PEAVQsciCommand@@@@XZ
    ?commentDelimiter@QsciLexerAsm@@QEBA?AVQChar@@XZ
    ?connectHorizontalScrollBar@QsciScintillaBase@@AEAAXXZ
    ?connectVerticalScrollBar@QsciScintillaBase@@AEAAXXZ
    ?contextMenuEvent@QsciScintilla@@MEAAXPEAVQContextMenuEvent@@@Z
    ?contextMenuEvent@QsciScintillaBase@@MEAAXPEAVQContextMenuEvent@@@Z
    ?contextMenuNeeded@QsciScintillaBase@@IEBA_NHH@Z
    ?contextUserDefineMenuEvent@QsciScintilla@@MEAAXPEAVQMenu@@PEAVQContextMenuEvent@@@Z
    ?contractedFolds@QsciScintilla@@QEBA?AV?$QList@H@@XZ
    ?convertEols@QsciScintilla@@QEAAXW4EolMode@1@@Z
    ?copy@QsciScintilla@@UEAAXXZ
    ?copyAvailable@QsciScintilla@@QEAAX_N@Z
    ?createDefaultDocForSearch@Document@Internal@Scintilla@@SAPEAV123@XZ
    ?createStandardContextMenu@QsciScintilla@@QEAAPEAVQMenu@@XZ
    ?currentIndent@QsciScintilla@@AEBAHXZ
    ?cursorPosChange@QsciScintilla@@QEAAXHH@Z
    ?cursorPositionChanged@QsciScintilla@@QEAAXHH@Z
    ?cut@QsciScintilla@@UEAAXXZ
    ?defaultColor@QsciLexer@@QEBA?AVQColor@@XZ
    ?defaultColor@QsciLexer@@UEBA?AVQColor@@H@Z
    ?defaultColor@QsciLexerApdl@@UEBA?AVQColor@@H@Z
    ?defaultColor@QsciLexerAsm@@UEBA?AVQColor@@H@Z
    ?defaultColor@QsciLexerBash@@UEBA?AVQColor@@H@Z
    ?defaultColor@QsciLexerBatch@@UEBA?AVQColor@@H@Z
    ?defaultColor@QsciLexerCMake@@UEBA?AVQColor@@H@Z
    ?defaultColor@QsciLexerCPP@@UEBA?AVQColor@@H@Z
    ?defaultColor@QsciLexerCSS@@UEBA?AVQColor@@H@Z
    ?defaultColor@QsciLexerCSharp@@UEBA?AVQColor@@H@Z
    ?defaultColor@QsciLexerCoffeeScript@@UEBA?AVQColor@@H@Z
    ?defaultColor@QsciLexerD@@UEBA?AVQColor@@H@Z
    ?defaultColor@QsciLexerDiff@@UEBA?AVQColor@@H@Z
    ?defaultColor@QsciLexerEDIFACT@@UEBA?AVQColor@@H@Z
    ?defaultColor@QsciLexerFortran77@@UEBA?AVQColor@@H@Z
    ?defaultColor@QsciLexerGCode@@UEBA?AVQColor@@H@Z
    ?defaultColor@QsciLexerGO@@UEBA?AVQColor@@H@Z
    ?defaultColor@QsciLexerGlobal@@UEBA?AVQColor@@H@Z
    ?defaultColor@QsciLexerHTML@@UEBA?AVQColor@@H@Z
    ?defaultColor@QsciLexerHex@@UEBA?AVQColor@@H@Z
    ?defaultColor@QsciLexerIDL@@UEBA?AVQColor@@H@Z
    ?defaultColor@QsciLexerJSON@@UEBA?AVQColor@@H@Z
    ?defaultColor@QsciLexerJavaScript@@UEBA?AVQColor@@H@Z
    ?defaultColor@QsciLexerLisp@@UEBA?AVQColor@@H@Z
    ?defaultColor@QsciLexerLog@@UEBA?AVQColor@@H@Z
    ?defaultColor@QsciLexerLua@@UEBA?AVQColor@@H@Z
    ?defaultColor@QsciLexerMakefile@@UEBA?AVQColor@@H@Z
    ?defaultColor@QsciLexerMarkdown@@UEBA?AVQColor@@H@Z
    ?defaultColor@QsciLexerMatlab@@UEBA?AVQColor@@H@Z
    ?defaultColor@QsciLexerNsis@@UEBA?AVQColor@@H@Z
    ?defaultColor@QsciLexerPO@@UEBA?AVQColor@@H@Z
    ?defaultColor@QsciLexerPOV@@UEBA?AVQColor@@H@Z
    ?defaultColor@QsciLexerPascal@@UEBA?AVQColor@@H@Z
    ?defaultColor@QsciLexerPerl@@UEBA?AVQColor@@H@Z
    ?defaultColor@QsciLexerPostScript@@UEBA?AVQColor@@H@Z
    ?defaultColor@QsciLexerPowerShell@@UEBA?AVQColor@@H@Z
    ?defaultColor@QsciLexerProperties@@UEBA?AVQColor@@H@Z
    ?defaultColor@QsciLexerPython@@UEBA?AVQColor@@H@Z
    ?defaultColor@QsciLexerR@@UEBA?AVQColor@@H@Z
    ?defaultColor@QsciLexerRuby@@UEBA?AVQColor@@H@Z
    ?defaultColor@QsciLexerRust@@UEBA?AVQColor@@H@Z
    ?defaultColor@QsciLexerSQL@@UEBA?AVQColor@@H@Z
    ?defaultColor@QsciLexerSpice@@UEBA?AVQColor@@H@Z
    ?defaultColor@QsciLexerTCL@@UEBA?AVQColor@@H@Z
    ?defaultColor@QsciLexerTeX@@UEBA?AVQColor@@H@Z
    ?defaultColor@QsciLexerText@@UEBA?AVQColor@@H@Z
    ?defaultColor@QsciLexerVB@@UEBA?AVQColor@@H@Z
    ?defaultColor@QsciLexerVHDL@@UEBA?AVQColor@@H@Z
    ?defaultColor@QsciLexerVerilog@@UEBA?AVQColor@@H@Z
    ?defaultColor@QsciLexerXML@@UEBA?AVQColor@@H@Z
    ?defaultColor@QsciLexerYAML@@UEBA?AVQColor@@H@Z
    ?defaultEolFill@QsciLexer@@UEBA_NH@Z
    ?defaultEolFill@QsciLexerApdl@@UEBA_NH@Z
    ?defaultEolFill@QsciLexerAsm@@UEBA_NH@Z
    ?defaultEolFill@QsciLexerBash@@UEBA_NH@Z
    ?defaultEolFill@QsciLexerBatch@@UEBA_NH@Z
    ?defaultEolFill@QsciLexerCPP@@UEBA_NH@Z
    ?defaultEolFill@QsciLexerCSharp@@UEBA_NH@Z
    ?defaultEolFill@QsciLexerCoffeeScript@@UEBA_NH@Z
    ?defaultEolFill@QsciLexerD@@UEBA_NH@Z
    ?defaultEolFill@QsciLexerFortran77@@UEBA_NH@Z
    ?defaultEolFill@QsciLexerGCode@@UEBA_NH@Z
    ?defaultEolFill@QsciLexerGO@@UEBA_NH@Z
    ?defaultEolFill@QsciLexerHTML@@UEBA_NH@Z
    ?defaultEolFill@QsciLexerJSON@@UEBA_NH@Z
    ?defaultEolFill@QsciLexerJavaScript@@UEBA_NH@Z
    ?defaultEolFill@QsciLexerLisp@@UEBA_NH@Z
    ?defaultEolFill@QsciLexerLog@@UEBA_NH@Z
    ?defaultEolFill@QsciLexerLua@@UEBA_NH@Z
    ?defaultEolFill@QsciLexerMakefile@@UEBA_NH@Z
    ?defaultEolFill@QsciLexerNsis@@UEBA_NH@Z
    ?defaultEolFill@QsciLexerPOV@@UEBA_NH@Z
    ?defaultEolFill@QsciLexerPascal@@UEBA_NH@Z
    ?defaultEolFill@QsciLexerPerl@@UEBA_NH@Z
    ?defaultEolFill@QsciLexerPowerShell@@UEBA_NH@Z
    ?defaultEolFill@QsciLexerProperties@@UEBA_NH@Z
    ?defaultEolFill@QsciLexerPython@@UEBA_NH@Z
    ?defaultEolFill@QsciLexerR@@UEBA_NH@Z
    ?defaultEolFill@QsciLexerRuby@@UEBA_NH@Z
    ?defaultEolFill@QsciLexerSQL@@UEBA_NH@Z
    ?defaultEolFill@QsciLexerTCL@@UEBA_NH@Z
    ?defaultEolFill@QsciLexerText@@UEBA_NH@Z
    ?defaultEolFill@QsciLexerVHDL@@UEBA_NH@Z
    ?defaultEolFill@QsciLexerVerilog@@UEBA_NH@Z
    ?defaultEolFill@QsciLexerXML@@UEBA_NH@Z
    ?defaultEolFill@QsciLexerYAML@@UEBA_NH@Z
    ?defaultFont@QsciLexer@@QEBA?AVQFont@@XZ
    ?defaultFont@QsciLexer@@UEBA?AVQFont@@H@Z
    ?defaultFont@QsciLexerApdl@@UEBA?AVQFont@@H@Z
    ?defaultFont@QsciLexerAsm@@UEBA?AVQFont@@H@Z
    ?defaultFont@QsciLexerBash@@UEBA?AVQFont@@H@Z
    ?defaultFont@QsciLexerBatch@@UEBA?AVQFont@@H@Z
    ?defaultFont@QsciLexerCMake@@UEBA?AVQFont@@H@Z
    ?defaultFont@QsciLexerCPP@@UEBA?AVQFont@@H@Z
    ?defaultFont@QsciLexerCSS@@UEBA?AVQFont@@H@Z
    ?defaultFont@QsciLexerCSharp@@UEBA?AVQFont@@H@Z
    ?defaultFont@QsciLexerCoffeeScript@@UEBA?AVQFont@@H@Z
    ?defaultFont@QsciLexerD@@UEBA?AVQFont@@H@Z
    ?defaultFont@QsciLexerFortran77@@UEBA?AVQFont@@H@Z
    ?defaultFont@QsciLexerGCode@@UEBA?AVQFont@@H@Z
    ?defaultFont@QsciLexerGO@@UEBA?AVQFont@@H@Z
    ?defaultFont@QsciLexerGlobal@@UEBA?AVQFont@@H@Z
    ?defaultFont@QsciLexerHTML@@UEBA?AVQFont@@H@Z
    ?defaultFont@QsciLexerHex@@UEBA?AVQFont@@H@Z
    ?defaultFont@QsciLexerJSON@@UEBA?AVQFont@@H@Z
    ?defaultFont@QsciLexerJavaScript@@UEBA?AVQFont@@H@Z
    ?defaultFont@QsciLexerLisp@@UEBA?AVQFont@@H@Z
    ?defaultFont@QsciLexerLog@@UEBA?AVQFont@@H@Z
    ?defaultFont@QsciLexerLua@@UEBA?AVQFont@@H@Z
    ?defaultFont@QsciLexerMakefile@@UEBA?AVQFont@@H@Z
    ?defaultFont@QsciLexerMarkdown@@UEBA?AVQFont@@H@Z
    ?defaultFont@QsciLexerMatlab@@UEBA?AVQFont@@H@Z
    ?defaultFont@QsciLexerNsis@@UEBA?AVQFont@@H@Z
    ?defaultFont@QsciLexerPO@@UEBA?AVQFont@@H@Z
    ?defaultFont@QsciLexerPOV@@UEBA?AVQFont@@H@Z
    ?defaultFont@QsciLexerPascal@@UEBA?AVQFont@@H@Z
    ?defaultFont@QsciLexerPerl@@UEBA?AVQFont@@H@Z
    ?defaultFont@QsciLexerPostScript@@UEBA?AVQFont@@H@Z
    ?defaultFont@QsciLexerPowerShell@@UEBA?AVQFont@@H@Z
    ?defaultFont@QsciLexerProperties@@UEBA?AVQFont@@H@Z
    ?defaultFont@QsciLexerPython@@UEBA?AVQFont@@H@Z
    ?defaultFont@QsciLexerR@@UEBA?AVQFont@@H@Z
    ?defaultFont@QsciLexerRuby@@UEBA?AVQFont@@H@Z
    ?defaultFont@QsciLexerRust@@UEBA?AVQFont@@H@Z
    ?defaultFont@QsciLexerSQL@@UEBA?AVQFont@@H@Z
    ?defaultFont@QsciLexerSpice@@UEBA?AVQFont@@H@Z
    ?defaultFont@QsciLexerTCL@@UEBA?AVQFont@@H@Z
    ?defaultFont@QsciLexerTeX@@UEBA?AVQFont@@H@Z
    ?defaultFont@QsciLexerText@@UEBA?AVQFont@@H@Z
    ?defaultFont@QsciLexerVB@@UEBA?AVQFont@@H@Z
    ?defaultFont@QsciLexerVHDL@@UEBA?AVQFont@@H@Z
    ?defaultFont@QsciLexerVerilog@@UEBA?AVQFont@@H@Z
    ?defaultFont@QsciLexerXML@@UEBA?AVQFont@@H@Z
    ?defaultFont@QsciLexerYAML@@UEBA?AVQFont@@H@Z
    ?defaultPaper@QsciLexer@@QEBA?AVQColor@@XZ
    ?defaultPaper@QsciLexer@@UEBA?AVQColor@@H@Z
    ?defaultPaper@QsciLexerApdl@@UEBA?AVQColor@@H@Z
    ?defaultPaper@QsciLexerAsm@@UEBA?AVQColor@@H@Z
    ?defaultPaper@QsciLexerBash@@UEBA?AVQColor@@H@Z
    ?defaultPaper@QsciLexerBatch@@UEBA?AVQColor@@H@Z
    ?defaultPaper@QsciLexerCMake@@UEBA?AVQColor@@H@Z
    ?defaultPaper@QsciLexerCPP@@UEBA?AVQColor@@H@Z
    ?defaultPaper@QsciLexerCSharp@@UEBA?AVQColor@@H@Z
    ?defaultPaper@QsciLexerCoffeeScript@@UEBA?AVQColor@@H@Z
    ?defaultPaper@QsciLexerD@@UEBA?AVQColor@@H@Z
    ?defaultPaper@QsciLexerFortran77@@UEBA?AVQColor@@H@Z
    ?defaultPaper@QsciLexerGCode@@UEBA?AVQColor@@H@Z
    ?defaultPaper@QsciLexerGO@@UEBA?AVQColor@@H@Z
    ?defaultPaper@QsciLexerGlobal@@UEBA?AVQColor@@H@Z
    ?defaultPaper@QsciLexerHTML@@UEBA?AVQColor@@H@Z
    ?defaultPaper@QsciLexerHex@@UEBA?AVQColor@@H@Z
    ?defaultPaper@QsciLexerJSON@@UEBA?AVQColor@@H@Z
    ?defaultPaper@QsciLexerJavaScript@@UEBA?AVQColor@@H@Z
    ?defaultPaper@QsciLexerLisp@@UEBA?AVQColor@@H@Z
    ?defaultPaper@QsciLexerLog@@UEBA?AVQColor@@H@Z
    ?defaultPaper@QsciLexerLua@@UEBA?AVQColor@@H@Z
    ?defaultPaper@QsciLexerMakefile@@UEBA?AVQColor@@H@Z
    ?defaultPaper@QsciLexerMarkdown@@UEBA?AVQColor@@H@Z
    ?defaultPaper@QsciLexerNsis@@UEBA?AVQColor@@H@Z
    ?defaultPaper@QsciLexerPOV@@UEBA?AVQColor@@H@Z
    ?defaultPaper@QsciLexerPascal@@UEBA?AVQColor@@H@Z
    ?defaultPaper@QsciLexerPerl@@UEBA?AVQColor@@H@Z
    ?defaultPaper@QsciLexerPostScript@@UEBA?AVQColor@@H@Z
    ?defaultPaper@QsciLexerPowerShell@@UEBA?AVQColor@@H@Z
    ?defaultPaper@QsciLexerProperties@@UEBA?AVQColor@@H@Z
    ?defaultPaper@QsciLexerPython@@UEBA?AVQColor@@H@Z
    ?defaultPaper@QsciLexerR@@UEBA?AVQColor@@H@Z
    ?defaultPaper@QsciLexerRuby@@UEBA?AVQColor@@H@Z
    ?defaultPaper@QsciLexerRust@@UEBA?AVQColor@@H@Z
    ?defaultPaper@QsciLexerSQL@@UEBA?AVQColor@@H@Z
    ?defaultPaper@QsciLexerTCL@@UEBA?AVQColor@@H@Z
    ?defaultPaper@QsciLexerText@@UEBA?AVQColor@@H@Z
    ?defaultPaper@QsciLexerVB@@UEBA?AVQColor@@H@Z
    ?defaultPaper@QsciLexerVHDL@@UEBA?AVQColor@@H@Z
    ?defaultPaper@QsciLexerVerilog@@UEBA?AVQColor@@H@Z
    ?defaultPaper@QsciLexerXML@@UEBA?AVQColor@@H@Z
    ?defaultPaper@QsciLexerYAML@@UEBA?AVQColor@@H@Z
    ?defaultPreparedName@QsciAPIs@@QEBA?AVQString@@XZ
    ?defaultStyle@QsciLexer@@UEBAHXZ
    ?deleteWorker@QsciAPIs@@AEAAXXZ
    ?delete_selection@QsciScintilla@@AEAAXXZ
    ?description@QsciCommand@@QEBA?AVQString@@XZ
    ?description@QsciLexerApdl@@UEBA?AVQString@@H@Z
    ?description@QsciLexerAsm@@UEBA?AVQString@@H@Z
    ?description@QsciLexerBash@@UEBA?AVQString@@H@Z
    ?description@QsciLexerBatch@@UEBA?AVQString@@H@Z
    ?description@QsciLexerCMake@@UEBA?AVQString@@H@Z
    ?description@QsciLexerCPP@@UEBA?AVQString@@H@Z
    ?description@QsciLexerCSS@@UEBA?AVQString@@H@Z
    ?description@QsciLexerCSharp@@UEBA?AVQString@@H@Z
    ?description@QsciLexerCoffeeScript@@UEBA?AVQString@@H@Z
    ?description@QsciLexerD@@UEBA?AVQString@@H@Z
    ?description@QsciLexerDiff@@UEBA?AVQString@@H@Z
    ?description@QsciLexerEDIFACT@@UEBA?AVQString@@H@Z
    ?description@QsciLexerFortran77@@UEBA?AVQString@@H@Z
    ?description@QsciLexerGCode@@UEBA?AVQString@@H@Z
    ?description@QsciLexerGO@@UEBA?AVQString@@H@Z
    ?description@QsciLexerGlobal@@UEBA?AVQString@@H@Z
    ?description@QsciLexerHTML@@UEBA?AVQString@@H@Z
    ?description@QsciLexerHex@@UEBA?AVQString@@H@Z
    ?description@QsciLexerIDL@@UEBA?AVQString@@H@Z
    ?description@QsciLexerIntelHex@@UEBA?AVQString@@H@Z
    ?description@QsciLexerJSON@@UEBA?AVQString@@H@Z
    ?description@QsciLexerJavaScript@@UEBA?AVQString@@H@Z
    ?description@QsciLexerLisp@@UEBA?AVQString@@H@Z
    ?description@QsciLexerLog@@UEBA?AVQString@@H@Z
    ?description@QsciLexerLua@@UEBA?AVQString@@H@Z
    ?description@QsciLexerMakefile@@UEBA?AVQString@@H@Z
    ?description@QsciLexerMarkdown@@UEBA?AVQString@@H@Z
    ?description@QsciLexerMatlab@@UEBA?AVQString@@H@Z
    ?description@QsciLexerNsis@@UEBA?AVQString@@H@Z
    ?description@QsciLexerPO@@UEBA?AVQString@@H@Z
    ?description@QsciLexerPOV@@UEBA?AVQString@@H@Z
    ?description@QsciLexerPascal@@UEBA?AVQString@@H@Z
    ?description@QsciLexerPerl@@UEBA?AVQString@@H@Z
    ?description@QsciLexerPostScript@@UEBA?AVQString@@H@Z
    ?description@QsciLexerPowerShell@@UEBA?AVQString@@H@Z
    ?description@QsciLexerProperties@@UEBA?AVQString@@H@Z
    ?description@QsciLexerPython@@UEBA?AVQString@@H@Z
    ?description@QsciLexerR@@UEBA?AVQString@@H@Z
    ?description@QsciLexerRuby@@UEBA?AVQString@@H@Z
    ?description@QsciLexerRust@@UEBA?AVQString@@H@Z
    ?description@QsciLexerSQL@@UEBA?AVQString@@H@Z
    ?description@QsciLexerSRec@@UEBA?AVQString@@H@Z
    ?description@QsciLexerSpice@@UEBA?AVQString@@H@Z
    ?description@QsciLexerTCL@@UEBA?AVQString@@H@Z
    ?description@QsciLexerTeX@@UEBA?AVQString@@H@Z
    ?description@QsciLexerTekHex@@UEBA?AVQString@@H@Z
    ?description@QsciLexerText@@UEBA?AVQString@@H@Z
    ?description@QsciLexerVB@@UEBA?AVQString@@H@Z
    ?description@QsciLexerVHDL@@UEBA?AVQString@@H@Z
    ?description@QsciLexerVerilog@@UEBA?AVQString@@H@Z
    ?description@QsciLexerYAML@@UEBA?AVQString@@H@Z
    ?description@QsciStyle@@QEBA?AVQString@@XZ
    ?detach@QsciDocument@@AEAAXXZ
    ?detachLexer@QsciScintilla@@AEAAXXZ
    ?display@QsciDocument@@AEAAXPEAVQsciScintillaBase@@PEBV1@@Z
    ?djangoTemplates@QsciLexerHTML@@QEBA_NXZ
    ?document@QsciScintilla@@QEBA?AVQsciDocument@@XZ
    ?dollarsAllowed@QsciLexerCPP@@QEBA_NXZ
    ?dollarsAllowed@QsciLexerCoffeeScript@@QEBA_NXZ
    ?dottedWords@QsciLexerSQL@@QEBA_NXZ
    ?dragEnterEvent@QsciScintillaBase@@MEAAXPEAVQDragEnterEvent@@@Z
    ?dragLeaveEvent@QsciScintillaBase@@MEAAXPEAVQDragLeaveEvent@@@Z
    ?dragMoveEvent@QsciScintillaBase@@MEAAXPEAVQDragMoveEvent@@@Z
    ?dropEvent@QsciScintillaBase@@MEAAXPEAVQDropEvent@@@Z
    ?edgeColor@QsciScintilla@@QEBA?AVQColor@@XZ
    ?edgeColumn@QsciScintilla@@QEBAHXZ
    ?edgeMode@QsciScintilla@@QEBA?AW4EdgeMode@1@XZ
    ?editor@QsciLexer@@QEBAPEAVQsciScintilla@@XZ
    ?endRecording@QsciMacro@@UEAAXXZ
    ?endUndoAction@QsciScintilla@@QEAAXXZ
    ?enoughCommas@QsciAPIs@@CA_NAEBVQString@@H@Z
    ?ensureCursorVisible@QsciScintilla@@UEAAXXZ
    ?ensureLineVisible@QsciScintilla@@UEAAXH@Z
    ?ensureRW@QsciScintilla@@AEAA_NXZ
    ?eolFill@QsciLexer@@UEBA_NH@Z
    ?eolFill@QsciStyle@@QEBA_NXZ
    ?eolFillChanged@QsciLexer@@QEAAX_NH@Z
    ?eolMode@QsciScintilla@@QEBA?AW4EolMode@1@XZ
    ?eolVisibility@QsciScintilla@@QEBA_NXZ
    ?event@QsciAPIs@@UEAA_NPEAVQEvent@@@Z
    ?event@QsciScintilla@@MEAA_NPEAVQEvent@@@Z
    ?eventModifiers@QsciScintillaBase@@AEAAHPEAVQMouseEvent@@@Z
    ?execute@QsciCommand@@QEAAXXZ
    ?extraAscent@QsciScintilla@@QEBAHXZ
    ?extraDescent@QsciScintilla@@QEBAHXZ
    ?fillIndicatorRange@QsciScintilla@@QEAAXHHHHH@Z
    ?find@QsciCommandSet@@QEBAPEAVQsciCommand@@W4Command@2@@Z
    ?findMatchingBrace@QsciScintilla@@QEAA_NAEAJ0W4BraceMatch@1@@Z
    ?findStyledWord@QsciScintilla@@AEAAHPEBDH0@Z
    ?firstVisibleLine@QsciScintilla@@QEBAHXZ
    ?focusInEvent@QsciScintillaBase@@MEAAXPEAVQFocusEvent@@@Z
    ?focusNextPrevChild@QsciScintillaBase@@MEAA_N_N@Z
    ?focusOutEvent@QsciScintillaBase@@MEAAXPEAVQFocusEvent@@@Z
    ?foldAll@QsciScintilla@@UEAAX_N@Z
    ?foldAtBegin@QsciLexerVHDL@@QEBA_NXZ
    ?foldAtElse@QsciLexerCMake@@QEBA_NXZ
    ?foldAtElse@QsciLexerCPP@@QEBA_NXZ
    ?foldAtElse@QsciLexerD@@QEBA_NXZ
    ?foldAtElse@QsciLexerPerl@@QEBA_NXZ
    ?foldAtElse@QsciLexerPostScript@@QEBA_NXZ
    ?foldAtElse@QsciLexerSQL@@QEBA_NXZ
    ?foldAtElse@QsciLexerVHDL@@QEBA_NXZ
    ?foldAtElse@QsciLexerVerilog@@QEBA_NXZ
    ?foldAtModule@QsciLexerVerilog@@QEBA_NXZ
    ?foldAtParenthesis@QsciLexerVHDL@@QEBA_NXZ
    ?foldChanged@QsciScintilla@@AEAAXHHH@Z
    ?foldClick@QsciScintilla@@AEAAXHH@Z
    ?foldComments@QsciLexerAsm@@QEBA_NXZ
    ?foldComments@QsciLexerBash@@QEBA_NXZ
    ?foldComments@QsciLexerCPP@@QEBA_NXZ
    ?foldComments@QsciLexerCSS@@QEBA_NXZ
    ?foldComments@QsciLexerCoffeeScript@@QEBA_NXZ
    ?foldComments@QsciLexerD@@QEBA_NXZ
    ?foldComments@QsciLexerPO@@QEBA_NXZ
    ?foldComments@QsciLexerPOV@@QEBA_NXZ
    ?foldComments@QsciLexerPascal@@QEBA_NXZ
    ?foldComments@QsciLexerPerl@@QEBA_NXZ
    ?foldComments@QsciLexerPython@@QEBA_NXZ
    ?foldComments@QsciLexerRuby@@QEBA_NXZ
    ?foldComments@QsciLexerSQL@@QEBA_NXZ
    ?foldComments@QsciLexerTCL@@QEBA_NXZ
    ?foldComments@QsciLexerTeX@@QEBA_NXZ
    ?foldComments@QsciLexerVHDL@@QEBA_NXZ
    ?foldComments@QsciLexerVerilog@@QEBA_NXZ
    ?foldComments@QsciLexerYAML@@QEBA_NXZ
    ?foldCompact@QsciLexerAsm@@QEBA_NXZ
    ?foldCompact@QsciLexerBash@@QEBA_NXZ
    ?foldCompact@QsciLexerCPP@@QEBA_NXZ
    ?foldCompact@QsciLexerCSS@@QEBA_NXZ
    ?foldCompact@QsciLexerCoffeeScript@@QEBA_NXZ
    ?foldCompact@QsciLexerD@@QEBA_NXZ
    ?foldCompact@QsciLexerFortran77@@QEBA_NXZ
    ?foldCompact@QsciLexerHTML@@QEBA_NXZ
    ?foldCompact@QsciLexerJSON@@QEBA_NXZ
    ?foldCompact@QsciLexerLua@@QEBA_NXZ
    ?foldCompact@QsciLexerPO@@QEBA_NXZ
    ?foldCompact@QsciLexerPOV@@QEBA_NXZ
    ?foldCompact@QsciLexerPascal@@QEBA_NXZ
    ?foldCompact@QsciLexerPerl@@QEBA_NXZ
    ?foldCompact@QsciLexerPostScript@@QEBA_NXZ
    ?foldCompact@QsciLexerProperties@@QEBA_NXZ
    ?foldCompact@QsciLexerPython@@QEBA_NXZ
    ?foldCompact@QsciLexerRuby@@QEBA_NXZ
    ?foldCompact@QsciLexerSQL@@QEBA_NXZ
    ?foldCompact@QsciLexerTeX@@QEBA_NXZ
    ?foldCompact@QsciLexerVHDL@@QEBA_NXZ
    ?foldCompact@QsciLexerVerilog@@QEBA_NXZ
    ?foldDirectives@QsciLexerPOV@@QEBA_NXZ
    ?foldExpand@QsciScintilla@@AEAAXAEAH_N1HH@Z
    ?foldLine@QsciScintilla@@UEAAXH@Z
    ?foldOnlyBegin@QsciLexerSQL@@QEBA_NXZ
    ?foldPODBlocks@QsciLexerPerl@@QEBA_NXZ
    ?foldPackages@QsciLexerPerl@@QEBA_NXZ
    ?foldPreprocessor@QsciLexerCPP@@QEBA_NXZ
    ?foldPreprocessor@QsciLexerHTML@@QEBA_NXZ
    ?foldPreprocessor@QsciLexerPascal@@QEBA_NXZ
    ?foldPreprocessor@QsciLexerVerilog@@QEBA_NXZ
    ?foldQuotes@QsciLexerPython@@QEBA_NXZ
    ?foldScriptComments@QsciLexerHTML@@QEBA_NXZ
    ?foldScriptHeredocs@QsciLexerHTML@@QEBA_NXZ
    ?foldSyntaxBased@QsciLexerAsm@@QEBA_NXZ
    ?folding@QsciScintilla@@QEBA?AW4FoldStyle@1@XZ
    ?font@QsciLexer@@UEBA?AVQFont@@H@Z
    ?font@QsciStyle@@QEBA?AVQFont@@XZ
    ?fontChanged@QsciLexer@@QEAAXAEBVQFont@@H@Z
    ?formatPage@QsciPrinter@@UEAAXAEAVQPainter@@_NAEAVQRect@@H@Z
    ?fromMimeData@QsciScintillaBase@@MEBA?AVQByteArray@@PEBVQMimeData@@AEA_N@Z
    ?getCharacter@QsciScintilla@@AEBADAEAH@Z
    ?getCommentEnd@QsciLexer@@QEAA?AVQByteArray@@XZ
    ?getCommentLineSymbol@QsciLexer@@QEAA?AVQByteArray@@XZ
    ?getCommentStart@QsciLexer@@QEAA?AVQByteArray@@XZ
    ?getCurrentLineNumber@QsciScintilla@@QEBAHXZ
    ?getCursorPosition@QsciScintilla@@QEBAXPEAH0@Z
    ?getHtmlHighLightTag@QsciScintilla@@QEAA_NXZ
    ?getIndentGuide@QsciScintilla@@QEAA_NXZ
    ?getIndentState@QsciScintilla@@AEAA?AW4IndentState@1@H@Z
    ?getLastFindState@QsciScintilla@@QEAAAEAUFindState@@XZ
    ?getLineIndent@QsciScintilla@@QEBAJH@Z
    ?getRealStyleId@QsciLexerGlobal@@SAHH@Z
    ?getSelection@QsciScintilla@@QEBA?AUSci_CharacterRange@@XZ
    ?getSelection@QsciScintilla@@QEBAXPEAH000@Z
    ?getSeparator@QsciScintilla@@AEBA_NAEAH@Z
    ?getUserDefineKeywords@QsciLexer@@QEAAPEBDH@Z
    ?getWord@QsciScintilla@@AEBA?AVQString@@AEAH@Z
    ?gotoMatchingBrace@QsciScintilla@@AEAAX_N@Z
    ?handleAutoCompletionSelection@QsciScintilla@@AEAAXXZ
    ?handleCallTipClick@QsciScintilla@@AEAAXH@Z
    ?handleCharAdded@QsciScintilla@@AEAAXH@Z
    ?handleHSb@QsciScintillaBase@@AEAAXH@Z
    ?handleIndicatorClick@QsciScintilla@@AEAAXHH@Z
    ?handleIndicatorRelease@QsciScintilla@@AEAAXHH@Z
    ?handleMarginClick@QsciScintilla@@AEAAXHHH@Z
    ?handleMarginRightClick@QsciScintilla@@AEAAXHHH@Z
    ?handleModified@QsciScintilla@@AEAAXHHPEBDHHHHHHH@Z
    ?handlePropertyChange@QsciScintilla@@AEAAXPEBD0@Z
    ?handleSavePointLeft@QsciScintilla@@AEAAXXZ
    ?handleSavePointReached@QsciScintilla@@AEAAXXZ
    ?handleSelectionChanged@QsciScintilla@@AEAAX_N@Z
    ?handleStyleColorChange@QsciScintilla@@AEAAXAEBVQColor@@H@Z
    ?handleStyleEolFillChange@QsciScintilla@@AEAAX_NH@Z
    ?handleStyleFontChange@QsciScintilla@@AEAAXAEBVQFont@@H@Z
    ?handleStyleNeeded@QsciLexerCustom@@AEAAXH@Z
    ?handleStylePaperChange@QsciScintilla@@AEAAXAEBVQColor@@H@Z
    ?handleUpdateUI@QsciScintilla@@AEAAXH@Z
    ?handleUserListSelection@QsciScintilla@@AEAAXPEBDH@Z
    ?handleVSb@QsciScintillaBase@@AEAAXH@Z
    ?hasFolder@QsciLexer@@QEAA_NXZ
    ?hasSelectedText@QsciScintilla@@QEBA_NXZ
    ?hashComments@QsciLexerSQL@@QEBA_NXZ
    ?highlightBackQuotedStrings@QsciLexerCPP@@QEBA_NXZ
    ?highlightComments@QsciLexerJSON@@QEBA_NXZ
    ?highlightEscapeSequences@QsciLexerCPP@@QEBA_NXZ
    ?highlightEscapeSequences@QsciLexerJSON@@QEBA_NXZ
    ?highlightHashQuotedStrings@QsciLexerCPP@@QEBA_NXZ
    ?highlightSubidentifiers@QsciLexerPython@@QEBA_NXZ
    ?highlightTripleQuotedStrings@QsciLexerCPP@@QEBA_NXZ
    ?hotspot@QsciStyle@@QEBA_NXZ
    ?indent@QsciScintilla@@UEAAXH@Z
    ?indentWidth@QsciScintilla@@AEBAHXZ
    ?indentation@QsciScintilla@@QEBAHH@Z
    ?indentationGuideView@QsciLexer@@UEBAHXZ
    ?indentationGuideView@QsciLexerPython@@UEBAHXZ
    ?indentationGuides@QsciScintilla@@QEBA_NXZ
    ?indentationWarning@QsciLexerPython@@QEBA?AW4IndentationWarning@1@XZ
    ?indentationWidth@QsciScintilla@@QEBAHXZ
    ?indentationsUseTabs@QsciScintilla@@QEBA_NXZ
    ?indicatorClicked@QsciScintilla@@QEAAXHHV?$QFlags@W4KeyboardModifier@Qt@@@@@Z
    ?indicatorDefine@QsciScintilla@@QEAAHW4IndicatorStyle@1@H@Z
    ?indicatorDrawUnder@QsciScintilla@@QEBA_NH@Z
    ?indicatorReleased@QsciScintilla@@QEAAXHHV?$QFlags@W4KeyboardModifier@Qt@@@@@Z
    ?init@QsciStyle@@AEAAXH@Z
    ?initialSpaces@QsciLexerProperties@@QEBA_NXZ
    ?inputMethodEvent@QsciScintillaBase@@MEAAXPEAVQInputMethodEvent@@@Z
    ?inputMethodQuery@QsciScintillaBase@@MEBA?AVQVariant@@W4InputMethodQuery@Qt@@@Z
    ?insert@QsciScintilla@@UEAAXAEBVQString@@@Z
    ?insertAt@QsciScintilla@@UEAAXAEBVQByteArray@@HH@Z
    ?insertAt@QsciScintilla@@UEAAXAEBVQString@@HH@Z
    ?insertAtPos@QsciScintilla@@AEAAXAEBVQByteArray@@H@Z
    ?insertAtPos@QsciScintilla@@AEAAXAEBVQString@@H@Z
    ?installedAPIFiles@QsciAPIs@@QEBA?AVQStringList@@XZ
    ?isAutoCompletionList@QsciScintilla@@AEBA_NXZ
    ?isCallTipActive@QsciScintilla@@QEBA_NXZ
    ?isInPasteStatus@QsciScintillaBase@@QEAA_NXZ
    ?isListActive@QsciScintilla@@QEBA_NXZ
    ?isModified@QsciDocument@@AEBA_NXZ
    ?isModified@QsciScintilla@@QEBA_NXZ
    ?isPrepared@QsciAPIs@@QEBA_NAEBVQString@@@Z
    ?isReadOnly@QsciScintilla@@QEBA_NXZ
    ?isRedoAvailable@QsciScintilla@@QEBA_NXZ
    ?isStartChar@QsciScintilla@@AEBA_ND@Z
    ?isUndoAvailable@QsciScintilla@@QEBA_NXZ
    ?isUtf8@QsciScintilla@@QEBA_NXZ
    ?isWordCharacter@QsciScintilla@@QEBA_ND@Z
    ?key@QsciCommand@@QEBAHXZ
    ?keyPressEvent@QsciScintillaBase@@MEAAXPEAVQKeyEvent@@@Z
    ?keywordClass@QsciLexerJavaScript@@0PEBDEB
    ?keywordClass@QsciLexerPython@@0PEBDEB
    ?keywords@QsciLexer@@UEAAPEBDH@Z
    ?keywords@QsciLexerApdl@@UEAAPEBDH@Z
    ?keywords@QsciLexerAsm@@UEAAPEBDH@Z
    ?keywords@QsciLexerBash@@UEAAPEBDH@Z
    ?keywords@QsciLexerBatch@@UEAAPEBDH@Z
    ?keywords@QsciLexerCMake@@UEAAPEBDH@Z
    ?keywords@QsciLexerCPP@@UEAAPEBDH@Z
    ?keywords@QsciLexerCSS@@UEAAPEBDH@Z
    ?keywords@QsciLexerCSharp@@UEAAPEBDH@Z
    ?keywords@QsciLexerCoffeeScript@@UEAAPEBDH@Z
    ?keywords@QsciLexerD@@UEAAPEBDH@Z
    ?keywords@QsciLexerFortran77@@UEAAPEBDH@Z
    ?keywords@QsciLexerFortran@@UEAAPEBDH@Z
    ?keywords@QsciLexerGCode@@UEAAPEBDH@Z
    ?keywords@QsciLexerGO@@UEAAPEBDH@Z
    ?keywords@QsciLexerHTML@@UEAAPEBDH@Z
    ?keywords@QsciLexerIDL@@UEAAPEBDH@Z
    ?keywords@QsciLexerJSON@@UEAAPEBDH@Z
    ?keywords@QsciLexerJava@@UEAAPEBDH@Z
    ?keywords@QsciLexerJavaScript@@UEAAPEBDH@Z
    ?keywords@QsciLexerLisp@@UEAAPEBDH@Z
    ?keywords@QsciLexerLog@@UEAAPEBDH@Z
    ?keywords@QsciLexerLua@@UEAAPEBDH@Z
    ?keywords@QsciLexerMatlab@@UEAAPEBDH@Z
    ?keywords@QsciLexerNsis@@UEAAPEBDH@Z
    ?keywords@QsciLexerOctave@@UEAAPEBDH@Z
    ?keywords@QsciLexerPOV@@UEAAPEBDH@Z
    ?keywords@QsciLexerPascal@@UEAAPEBDH@Z
    ?keywords@QsciLexerPerl@@UEAAPEBDH@Z
    ?keywords@QsciLexerPostScript@@UEAAPEBDH@Z
    ?keywords@QsciLexerPowerShell@@UEAAPEBDH@Z
    ?keywords@QsciLexerPython@@UEAAPEBDH@Z
    ?keywords@QsciLexerR@@UEAAPEBDH@Z
    ?keywords@QsciLexerRuby@@UEAAPEBDH@Z
    ?keywords@QsciLexerRust@@UEAAPEBDH@Z
    ?keywords@QsciLexerSQL@@UEAAPEBDH@Z
    ?keywords@QsciLexerSpice@@UEAAPEBDH@Z
    ?keywords@QsciLexerTCL@@UEAAPEBDH@Z
    ?keywords@QsciLexerTeX@@UEAAPEBDH@Z
    ?keywords@QsciLexerText@@UEAAPEBDH@Z
    ?keywords@QsciLexerVB@@UEAAPEBDH@Z
    ?keywords@QsciLexerVHDL@@UEAAPEBDH@Z
    ?keywords@QsciLexerVerilog@@UEAAPEBDH@Z
    ?keywords@QsciLexerXML@@UEAAPEBDH@Z
    ?keywords@QsciLexerYAML@@UEAAPEBDH@Z
    ?language@QsciLexerApdl@@UEBAPEBDXZ
    ?language@QsciLexerAsm@@UEBAPEBDXZ
    ?language@QsciLexerBash@@UEBAPEBDXZ
    ?language@QsciLexerBatch@@UEBAPEBDXZ
    ?language@QsciLexerCMake@@UEBAPEBDXZ
    ?language@QsciLexerCPP@@UEBAPEBDXZ
    ?language@QsciLexerCSS@@UEBAPEBDXZ
    ?language@QsciLexerCSharp@@UEBAPEBDXZ
    ?language@QsciLexerCoffeeScript@@UEBAPEBDXZ
    ?language@QsciLexerD@@UEBAPEBDXZ
    ?language@QsciLexerDiff@@UEBAPEBDXZ
    ?language@QsciLexerEDIFACT@@UEBAPEBDXZ
    ?language@QsciLexerFortran77@@UEBAPEBDXZ
    ?language@QsciLexerFortran@@UEBAPEBDXZ
    ?language@QsciLexerGCode@@UEBAPEBDXZ
    ?language@QsciLexerGO@@UEBAPEBDXZ
    ?language@QsciLexerGlobal@@UEBAPEBDXZ
    ?language@QsciLexerHTML@@UEBAPEBDXZ
    ?language@QsciLexerIDL@@UEBAPEBDXZ
    ?language@QsciLexerIntelHex@@UEBAPEBDXZ
    ?language@QsciLexerJSON@@UEBAPEBDXZ
    ?language@QsciLexerJava@@UEBAPEBDXZ
    ?language@QsciLexerJavaScript@@UEBAPEBDXZ
    ?language@QsciLexerLisp@@UEBAPEBDXZ
    ?language@QsciLexerLog@@UEBAPEBDXZ
    ?language@QsciLexerLua@@UEBAPEBDXZ
    ?language@QsciLexerMASM@@UEBAPEBDXZ
    ?language@QsciLexerMakefile@@UEBAPEBDXZ
    ?language@QsciLexerMarkdown@@UEBAPEBDXZ
    ?language@QsciLexerMatlab@@UEBAPEBDXZ
    ?language@QsciLexerNASM@@UEBAPEBDXZ
    ?language@QsciLexerNsis@@UEBAPEBDXZ
    ?language@QsciLexerOctave@@UEBAPEBDXZ
    ?language@QsciLexerPO@@UEBAPEBDXZ
    ?language@QsciLexerPOV@@UEBAPEBDXZ
    ?language@QsciLexerPascal@@UEBAPEBDXZ
    ?language@QsciLexerPerl@@UEBAPEBDXZ
    ?language@QsciLexerPostScript@@UEBAPEBDXZ
    ?language@QsciLexerPowerShell@@UEBAPEBDXZ
    ?language@QsciLexerProperties@@UEBAPEBDXZ
    ?language@QsciLexerPython@@UEBAPEBDXZ
    ?language@QsciLexerR@@UEBAPEBDXZ
    ?language@QsciLexerRuby@@UEBAPEBDXZ
    ?language@QsciLexerRust@@UEBAPEBDXZ
    ?language@QsciLexerSQL@@UEBAPEBDXZ
    ?language@QsciLexerSRec@@UEBAPEBDXZ
    ?language@QsciLexerSpice@@UEBAPEBDXZ
    ?language@QsciLexerTCL@@UEBAPEBDXZ
    ?language@QsciLexerTeX@@UEBAPEBDXZ
    ?language@QsciLexerTekHex@@UEBAPEBDXZ
    ?language@QsciLexerText@@UEBAPEBDXZ
    ?language@QsciLexerVB@@UEBAPEBDXZ
    ?language@QsciLexerVHDL@@UEBAPEBDXZ
    ?language@QsciLexerVerilog@@UEBAPEBDXZ
    ?language@QsciLexerXML@@UEBAPEBDXZ
    ?language@QsciLexerYAML@@UEBAPEBDXZ
    ?lastCompleteWord@QsciAPIs@@AEAAXAEBVQString@@AEAVQStringList@@AEA_N@Z
    ?lastPartialWord@QsciAPIs@@AEAAXAEBVQString@@AEAVQStringList@@AEA_N@Z
    ?length@QsciScintilla@@QEBAHXZ
    ?level@QsciLexerPostScript@@QEBAHXZ
    ?lexer@QsciAbstractAPIs@@QEBAPEAVQsciLexer@@XZ
    ?lexer@QsciLexer@@UEBAPEBDXZ
    ?lexer@QsciLexerApdl@@UEBAPEBDXZ
    ?lexer@QsciLexerAsm@@UEBAPEBDXZ
    ?lexer@QsciLexerBash@@UEBAPEBDXZ
    ?lexer@QsciLexerBatch@@UEBAPEBDXZ
    ?lexer@QsciLexerCMake@@UEBAPEBDXZ
    ?lexer@QsciLexerCPP@@UEBAPEBDXZ
    ?lexer@QsciLexerCSS@@UEBAPEBDXZ
    ?lexer@QsciLexerCoffeeScript@@UEBAPEBDXZ
    ?lexer@QsciLexerD@@UEBAPEBDXZ
    ?lexer@QsciLexerDiff@@UEBAPEBDXZ
    ?lexer@QsciLexerEDIFACT@@UEBAPEBDXZ
    ?lexer@QsciLexerFortran77@@UEBAPEBDXZ
    ?lexer@QsciLexerFortran@@UEBAPEBDXZ
    ?lexer@QsciLexerGCode@@UEBAPEBDXZ
    ?lexer@QsciLexerHTML@@UEBAPEBDXZ
    ?lexer@QsciLexerIntelHex@@UEBAPEBDXZ
    ?lexer@QsciLexerJSON@@UEBAPEBDXZ
    ?lexer@QsciLexerLisp@@UEBAPEBDXZ
    ?lexer@QsciLexerLog@@UEBAPEBDXZ
    ?lexer@QsciLexerLua@@UEBAPEBDXZ
    ?lexer@QsciLexerMASM@@UEBAPEBDXZ
    ?lexer@QsciLexerMakefile@@UEBAPEBDXZ
    ?lexer@QsciLexerMarkdown@@UEBAPEBDXZ
    ?lexer@QsciLexerMatlab@@UEBAPEBDXZ
    ?lexer@QsciLexerNASM@@UEBAPEBDXZ
    ?lexer@QsciLexerNsis@@UEBAPEBDXZ
    ?lexer@QsciLexerOctave@@UEBAPEBDXZ
    ?lexer@QsciLexerPO@@UEBAPEBDXZ
    ?lexer@QsciLexerPOV@@UEBAPEBDXZ
    ?lexer@QsciLexerPascal@@UEBAPEBDXZ
    ?lexer@QsciLexerPerl@@UEBAPEBDXZ
    ?lexer@QsciLexerPostScript@@UEBAPEBDXZ
    ?lexer@QsciLexerPowerShell@@UEBAPEBDXZ
    ?lexer@QsciLexerProperties@@UEBAPEBDXZ
    ?lexer@QsciLexerPython@@UEBAPEBDXZ
    ?lexer@QsciLexerR@@UEBAPEBDXZ
    ?lexer@QsciLexerRuby@@UEBAPEBDXZ
    ?lexer@QsciLexerRust@@UEBAPEBDXZ
    ?lexer@QsciLexerSQL@@UEBAPEBDXZ
    ?lexer@QsciLexerSRec@@UEBAPEBDXZ
    ?lexer@QsciLexerSpice@@UEBAPEBDXZ
    ?lexer@QsciLexerTCL@@UEBAPEBDXZ
    ?lexer@QsciLexerTeX@@UEBAPEBDXZ
    ?lexer@QsciLexerTekHex@@UEBAPEBDXZ
    ?lexer@QsciLexerText@@UEBAPEBDXZ
    ?lexer@QsciLexerVB@@UEBAPEBDXZ
    ?lexer@QsciLexerVHDL@@UEBAPEBDXZ
    ?lexer@QsciLexerVerilog@@UEBAPEBDXZ
    ?lexer@QsciLexerXML@@UEBAPEBDXZ
    ?lexer@QsciLexerYAML@@UEBAPEBDXZ
    ?lexer@QsciScintilla@@QEBAPEAVQsciLexer@@XZ
    ?lexerId@QsciLexer@@UEBAHXZ
    ?lexerId@QsciLexerGlobal@@UEBAHXZ
    ?lexerId@QsciLexerNsis@@UEBAHXZ
    ?lexerId@QsciLexerPython@@UEBAHXZ
    ?lexerId@QsciLexerRust@@UEBAHXZ
    ?lexerId@QsciLexerXML@@UEBAHXZ
    ?lexerTag@QsciLexer@@QEAA?AVQString@@XZ
    ?lineAt@QsciScintilla@@QEBAHAEBVQPoint@@@Z
    ?lineIndexFromPosition@QsciScintilla@@QEBAXHPEAH0@Z
    ?lineLength@QsciScintilla@@QEBAHH@Z
    ?lines@QsciScintilla@@QEBAHXZ
    ?linesChanged@QsciScintilla@@QEAAXXZ
    ?load@QsciAPIs@@QEAA_NAEBVQString@@@Z
    ?load@QsciMacro@@QEAA_NAEBVQString@@@Z
    ?loadPrepared@QsciAPIs@@QEAA_NAEBVQString@@@Z
    ?m_themesId@QsciLexer@@1HA
    ?magnification@QsciPrinter@@QEBAHXZ
    ?maintainIndentation@QsciScintilla@@AEAAXDJ@Z
    ?makoTemplates@QsciLexerHTML@@QEBA_NXZ
    ?mapModifiers@QsciScintilla@@CAHH@Z
    ?marginBackgroundColor@QsciScintilla@@QEBA?AVQColor@@H@Z
    ?marginClicked@QsciScintilla@@QEAAXHHV?$QFlags@W4KeyboardModifier@Qt@@@@@Z
    ?marginLineNumbers@QsciScintilla@@QEBA_NH@Z
    ?marginMarkerMask@QsciScintilla@@QEBAHH@Z
    ?marginOptions@QsciScintilla@@QEBAHXZ
    ?marginRightClicked@QsciScintilla@@QEAAXHHV?$QFlags@W4KeyboardModifier@Qt@@@@@Z
    ?marginSensitivity@QsciScintilla@@QEBA_NH@Z
    ?marginType@QsciScintilla@@QEBA?AW4MarginType@1@H@Z
    ?marginWidth@QsciScintilla@@QEBAHH@Z
    ?margins@QsciScintilla@@QEBAHXZ
    ?markerAdd@QsciScintilla@@QEAAHHH@Z
    ?markerDefine@QsciScintilla@@QEAAHAEBVQImage@@H@Z
    ?markerDefine@QsciScintilla@@QEAAHAEBVQPixmap@@H@Z
    ?markerDefine@QsciScintilla@@QEAAHDH@Z
    ?markerDefine@QsciScintilla@@QEAAHW4MarkerSymbol@1@H@Z
    ?markerDelete@QsciScintilla@@QEAAXH@Z
    ?markerDelete@QsciScintilla@@QEAAXHH@Z
    ?markerDeleteAll@QsciScintilla@@QEAAXH@Z
    ?markerDeleteHandle@QsciScintilla@@QEAAXH@Z
    ?markerFindNext@QsciScintilla@@QEBAHHI@Z
    ?markerFindPrevious@QsciScintilla@@QEBAHHI@Z
    ?markerLine@QsciScintilla@@QEBAHH@Z
    ?markersAtLine@QsciScintilla@@QEBAIH@Z
    ?maxDescNum@QsciLexer@@QEAAHXZ
    ?metaObject@QsciAPIs@@UEBAPEBUQMetaObject@@XZ
    ?metaObject@QsciAbstractAPIs@@UEBAPEBUQMetaObject@@XZ
    ?metaObject@QsciLexer@@UEBAPEBUQMetaObject@@XZ
    ?metaObject@QsciLexerApdl@@UEBAPEBUQMetaObject@@XZ
    ?metaObject@QsciLexerAsm@@UEBAPEBUQMetaObject@@XZ
    ?metaObject@QsciLexerBash@@UEBAPEBUQMetaObject@@XZ
    ?metaObject@QsciLexerBatch@@UEBAPEBUQMetaObject@@XZ
    ?metaObject@QsciLexerCMake@@UEBAPEBUQMetaObject@@XZ
    ?metaObject@QsciLexerCPP@@UEBAPEBUQMetaObject@@XZ
    ?metaObject@QsciLexerCSS@@UEBAPEBUQMetaObject@@XZ
    ?metaObject@QsciLexerCSharp@@UEBAPEBUQMetaObject@@XZ
    ?metaObject@QsciLexerCoffeeScript@@UEBAPEBUQMetaObject@@XZ
    ?metaObject@QsciLexerCustom@@UEBAPEBUQMetaObject@@XZ
    ?metaObject@QsciLexerD@@UEBAPEBUQMetaObject@@XZ
    ?metaObject@QsciLexerDiff@@UEBAPEBUQMetaObject@@XZ
    ?metaObject@QsciLexerEDIFACT@@UEBAPEBUQMetaObject@@XZ
    ?metaObject@QsciLexerFortran77@@UEBAPEBUQMetaObject@@XZ
    ?metaObject@QsciLexerFortran@@UEBAPEBUQMetaObject@@XZ
    ?metaObject@QsciLexerGCode@@UEBAPEBUQMetaObject@@XZ
    ?metaObject@QsciLexerGO@@UEBAPEBUQMetaObject@@XZ
    ?metaObject@QsciLexerGlobal@@UEBAPEBUQMetaObject@@XZ
    ?metaObject@QsciLexerHTML@@UEBAPEBUQMetaObject@@XZ
    ?metaObject@QsciLexerHex@@UEBAPEBUQMetaObject@@XZ
    ?metaObject@QsciLexerIDL@@UEBAPEBUQMetaObject@@XZ
    ?metaObject@QsciLexerIntelHex@@UEBAPEBUQMetaObject@@XZ
    ?metaObject@QsciLexerJSON@@UEBAPEBUQMetaObject@@XZ
    ?metaObject@QsciLexerJava@@UEBAPEBUQMetaObject@@XZ
    ?metaObject@QsciLexerJavaScript@@UEBAPEBUQMetaObject@@XZ
    ?metaObject@QsciLexerLisp@@UEBAPEBUQMetaObject@@XZ
    ?metaObject@QsciLexerLog@@UEBAPEBUQMetaObject@@XZ
    ?metaObject@QsciLexerLua@@UEBAPEBUQMetaObject@@XZ
    ?metaObject@QsciLexerMASM@@UEBAPEBUQMetaObject@@XZ
    ?metaObject@QsciLexerMakefile@@UEBAPEBUQMetaObject@@XZ
    ?metaObject@QsciLexerMarkdown@@UEBAPEBUQMetaObject@@XZ
    ?metaObject@QsciLexerMatlab@@UEBAPEBUQMetaObject@@XZ
    ?metaObject@QsciLexerNASM@@UEBAPEBUQMetaObject@@XZ
    ?metaObject@QsciLexerNsis@@UEBAPEBUQMetaObject@@XZ
    ?metaObject@QsciLexerOctave@@UEBAPEBUQMetaObject@@XZ
    ?metaObject@QsciLexerPO@@UEBAPEBUQMetaObject@@XZ
    ?metaObject@QsciLexerPOV@@UEBAPEBUQMetaObject@@XZ
    ?metaObject@QsciLexerPascal@@UEBAPEBUQMetaObject@@XZ
    ?metaObject@QsciLexerPerl@@UEBAPEBUQMetaObject@@XZ
    ?metaObject@QsciLexerPostScript@@UEBAPEBUQMetaObject@@XZ
    ?metaObject@QsciLexerPowerShell@@UEBAPEBUQMetaObject@@XZ
    ?metaObject@QsciLexerProperties@@UEBAPEBUQMetaObject@@XZ
    ?metaObject@QsciLexerPython@@UEBAPEBUQMetaObject@@XZ
    ?metaObject@QsciLexerR@@UEBAPEBUQMetaObject@@XZ
    ?metaObject@QsciLexerRuby@@UEBAPEBUQMetaObject@@XZ
    ?metaObject@QsciLexerRust@@UEBAPEBUQMetaObject@@XZ
    ?metaObject@QsciLexerSQL@@UEBAPEBUQMetaObject@@XZ
    ?metaObject@QsciLexerSRec@@UEBAPEBUQMetaObject@@XZ
    ?metaObject@QsciLexerSpice@@UEBAPEBUQMetaObject@@XZ
    ?metaObject@QsciLexerTCL@@UEBAPEBUQMetaObject@@XZ
    ?metaObject@QsciLexerTeX@@UEBAPEBUQMetaObject@@XZ
    ?metaObject@QsciLexerTekHex@@UEBAPEBUQMetaObject@@XZ
    ?metaObject@QsciLexerText@@UEBAPEBUQMetaObject@@XZ
    ?metaObject@QsciLexerVB@@UEBAPEBUQMetaObject@@XZ
    ?metaObject@QsciLexerVHDL@@UEBAPEBUQMetaObject@@XZ
    ?metaObject@QsciLexerVerilog@@UEBAPEBUQMetaObject@@XZ
    ?metaObject@QsciLexerXML@@UEBAPEBUQMetaObject@@XZ
    ?metaObject@QsciLexerYAML@@UEBAPEBUQMetaObject@@XZ
    ?metaObject@QsciMacro@@UEBAPEBUQMetaObject@@XZ
    ?metaObject@QsciScintilla@@UEBAPEBUQMetaObject@@XZ
    ?metaObject@QsciScintillaBase@@UEBAPEBUQMetaObject@@XZ
    ?modificationAttempted@QsciScintilla@@QEAAXXZ
    ?modificationChanged@QsciScintilla@@QEAAX_N@Z
    ?mouseDoubleClickEvent@QsciScintillaBase@@MEAAXPEAVQMouseEvent@@@Z
    ?mouseMoveEvent@QsciScintillaBase@@MEAAXPEAVQMouseEvent@@@Z
    ?mousePressEvent@QsciScintillaBase@@MEAAXPEAVQMouseEvent@@@Z
    ?mouseReleaseEvent@QsciScintillaBase@@MEAAXPEAVQMouseEvent@@@Z
    ?moveToMatchingBrace@QsciScintilla@@UEAAXXZ
    ?originStartsWith@QsciAPIs@@AEAA_NAEBVQString@@0@Z
    ?overwriteMode@QsciScintilla@@QEBA_NXZ
    ?paintEvent@QsciScintillaBase@@MEAAXPEAVQPaintEvent@@@Z
    ?paper@QsciLexer@@UEBA?AVQColor@@H@Z
    ?paper@QsciScintilla@@QEBA?AVQColor@@XZ
    ?paper@QsciStyle@@QEBA?AVQColor@@XZ
    ?paperChanged@QsciLexer@@QEAAXAEBVQColor@@H@Z
    ?paste@QsciScintilla@@UEAAXXZ
    ?play@QsciMacro@@UEAAXXZ
    ?playUserMacroRecord@QsciScintilla@@MEAAXIKPEAX@Z
    ?pool@QsciScintillaBase@@SAPEAV1@XZ
    ?positionFromLineIndex@QsciScintilla@@QEBAHHH@Z
    ?positionOrigin@QsciAPIs@@AEAA?AVQStringList@@AEBV2@AEAVQString@@@Z
    ?prepName@QsciAPIs@@AEBA?AVQString@@AEBV2@_N@Z
    ?prepare@QsciAPIs@@QEAAXXZ
    ?printRange@QsciPrinter@@UEAAHPEAVQsciScintillaBase@@AEAVQPainter@@HH@Z
    ?printRange@QsciPrinter@@UEAAHPEAVQsciScintillaBase@@HH@Z
    ?processComments@QsciLexerTeX@@QEBA_NXZ
    ?processIf@QsciLexerTeX@@QEBA_NXZ
    ?propertyChanged@QsciLexer@@QEAAXPEBD0@Z
    ?qt_metacall@QsciAPIs@@UEAAHW4Call@QMetaObject@@HPEAPEAX@Z
    ?qt_metacall@QsciAbstractAPIs@@UEAAHW4Call@QMetaObject@@HPEAPEAX@Z
    ?qt_metacall@QsciLexer@@UEAAHW4Call@QMetaObject@@HPEAPEAX@Z
    ?qt_metacall@QsciLexerApdl@@UEAAHW4Call@QMetaObject@@HPEAPEAX@Z
    ?qt_metacall@QsciLexerAsm@@UEAAHW4Call@QMetaObject@@HPEAPEAX@Z
    ?qt_metacall@QsciLexerBash@@UEAAHW4Call@QMetaObject@@HPEAPEAX@Z
    ?qt_metacall@QsciLexerBatch@@UEAAHW4Call@QMetaObject@@HPEAPEAX@Z
    ?qt_metacall@QsciLexerCMake@@UEAAHW4Call@QMetaObject@@HPEAPEAX@Z
    ?qt_metacall@QsciLexerCPP@@UEAAHW4Call@QMetaObject@@HPEAPEAX@Z
    ?qt_metacall@QsciLexerCSS@@UEAAHW4Call@QMetaObject@@HPEAPEAX@Z
    ?qt_metacall@QsciLexerCSharp@@UEAAHW4Call@QMetaObject@@HPEAPEAX@Z
    ?qt_metacall@QsciLexerCoffeeScript@@UEAAHW4Call@QMetaObject@@HPEAPEAX@Z
    ?qt_metacall@QsciLexerCustom@@UEAAHW4Call@QMetaObject@@HPEAPEAX@Z
    ?qt_metacall@QsciLexerD@@UEAAHW4Call@QMetaObject@@HPEAPEAX@Z
    ?qt_metacall@QsciLexerDiff@@UEAAHW4Call@QMetaObject@@HPEAPEAX@Z
    ?qt_metacall@QsciLexerEDIFACT@@UEAAHW4Call@QMetaObject@@HPEAPEAX@Z
    ?qt_metacall@QsciLexerFortran77@@UEAAHW4Call@QMetaObject@@HPEAPEAX@Z
    ?qt_metacall@QsciLexerFortran@@UEAAHW4Call@QMetaObject@@HPEAPEAX@Z
    ?qt_metacall@QsciLexerGCode@@UEAAHW4Call@QMetaObject@@HPEAPEAX@Z
    ?qt_metacall@QsciLexerGO@@UEAAHW4Call@QMetaObject@@HPEAPEAX@Z
    ?qt_metacall@QsciLexerGlobal@@UEAAHW4Call@QMetaObject@@HPEAPEAX@Z
    ?qt_metacall@QsciLexerHTML@@UEAAHW4Call@QMetaObject@@HPEAPEAX@Z
    ?qt_metacall@QsciLexerHex@@UEAAHW4Call@QMetaObject@@HPEAPEAX@Z
    ?qt_metacall@QsciLexerIDL@@UEAAHW4Call@QMetaObject@@HPEAPEAX@Z
    ?qt_metacall@QsciLexerIntelHex@@UEAAHW4Call@QMetaObject@@HPEAPEAX@Z
    ?qt_metacall@QsciLexerJSON@@UEAAHW4Call@QMetaObject@@HPEAPEAX@Z
    ?qt_metacall@QsciLexerJava@@UEAAHW4Call@QMetaObject@@HPEAPEAX@Z
    ?qt_metacall@QsciLexerJavaScript@@UEAAHW4Call@QMetaObject@@HPEAPEAX@Z
    ?qt_metacall@QsciLexerLisp@@UEAAHW4Call@QMetaObject@@HPEAPEAX@Z
    ?qt_metacall@QsciLexerLog@@UEAAHW4Call@QMetaObject@@HPEAPEAX@Z
    ?qt_metacall@QsciLexerLua@@UEAAHW4Call@QMetaObject@@HPEAPEAX@Z
    ?qt_metacall@QsciLexerMASM@@UEAAHW4Call@QMetaObject@@HPEAPEAX@Z
    ?qt_metacall@QsciLexerMakefile@@UEAAHW4Call@QMetaObject@@HPEAPEAX@Z
    ?qt_metacall@QsciLexerMarkdown@@UEAAHW4Call@QMetaObject@@HPEAPEAX@Z
    ?qt_metacall@QsciLexerMatlab@@UEAAHW4Call@QMetaObject@@HPEAPEAX@Z
    ?qt_metacall@QsciLexerNASM@@UEAAHW4Call@QMetaObject@@HPEAPEAX@Z
    ?qt_metacall@QsciLexerNsis@@UEAAHW4Call@QMetaObject@@HPEAPEAX@Z
    ?qt_metacall@QsciLexerOctave@@UEAAHW4Call@QMetaObject@@HPEAPEAX@Z
    ?qt_metacall@QsciLexerPO@@UEAAHW4Call@QMetaObject@@HPEAPEAX@Z
    ?qt_metacall@QsciLexerPOV@@UEAAHW4Call@QMetaObject@@HPEAPEAX@Z
    ?qt_metacall@QsciLexerPascal@@UEAAHW4Call@QMetaObject@@HPEAPEAX@Z
    ?qt_metacall@QsciLexerPerl@@UEAAHW4Call@QMetaObject@@HPEAPEAX@Z
    ?qt_metacall@QsciLexerPostScript@@UEAAHW4Call@QMetaObject@@HPEAPEAX@Z
    ?qt_metacall@QsciLexerPowerShell@@UEAAHW4Call@QMetaObject@@HPEAPEAX@Z
    ?qt_metacall@QsciLexerProperties@@UEAAHW4Call@QMetaObject@@HPEAPEAX@Z
    ?qt_metacall@QsciLexerPython@@UEAAHW4Call@QMetaObject@@HPEAPEAX@Z
    ?qt_metacall@QsciLexerR@@UEAAHW4Call@QMetaObject@@HPEAPEAX@Z
    ?qt_metacall@QsciLexerRuby@@UEAAHW4Call@QMetaObject@@HPEAPEAX@Z
    ?qt_metacall@QsciLexerRust@@UEAAHW4Call@QMetaObject@@HPEAPEAX@Z
    ?qt_metacall@QsciLexerSQL@@UEAAHW4Call@QMetaObject@@HPEAPEAX@Z
    ?qt_metacall@QsciLexerSRec@@UEAAHW4Call@QMetaObject@@HPEAPEAX@Z
    ?qt_metacall@QsciLexerSpice@@UEAAHW4Call@QMetaObject@@HPEAPEAX@Z
    ?qt_metacall@QsciLexerTCL@@UEAAHW4Call@QMetaObject@@HPEAPEAX@Z
    ?qt_metacall@QsciLexerTeX@@UEAAHW4Call@QMetaObject@@HPEAPEAX@Z
    ?qt_metacall@QsciLexerTekHex@@UEAAHW4Call@QMetaObject@@HPEAPEAX@Z
    ?qt_metacall@QsciLexerText@@UEAAHW4Call@QMetaObject@@HPEAPEAX@Z
    ?qt_metacall@QsciLexerVB@@UEAAHW4Call@QMetaObject@@HPEAPEAX@Z
    ?qt_metacall@QsciLexerVHDL@@UEAAHW4Call@QMetaObject@@HPEAPEAX@Z
    ?qt_metacall@QsciLexerVerilog@@UEAAHW4Call@QMetaObject@@HPEAPEAX@Z
    ?qt_metacall@QsciLexerXML@@UEAAHW4Call@QMetaObject@@HPEAPEAX@Z
    ?qt_metacall@QsciLexerYAML@@UEAAHW4Call@QMetaObject@@HPEAPEAX@Z
    ?qt_metacall@QsciMacro@@UEAAHW4Call@QMetaObject@@HPEAPEAX@Z
    ?qt_metacall@QsciScintilla@@UEAAHW4Call@QMetaObject@@HPEAPEAX@Z
    ?qt_metacall@QsciScintillaBase@@UEAAHW4Call@QMetaObject@@HPEAPEAX@Z
    ?qt_metacast@QsciAPIs@@UEAAPEAXPEBD@Z
    ?qt_metacast@QsciAbstractAPIs@@UEAAPEAXPEBD@Z
    ?qt_metacast@QsciLexer@@UEAAPEAXPEBD@Z
    ?qt_metacast@QsciLexerApdl@@UEAAPEAXPEBD@Z
    ?qt_metacast@QsciLexerAsm@@UEAAPEAXPEBD@Z
    ?qt_metacast@QsciLexerBash@@UEAAPEAXPEBD@Z
    ?qt_metacast@QsciLexerBatch@@UEAAPEAXPEBD@Z
    ?qt_metacast@QsciLexerCMake@@UEAAPEAXPEBD@Z
    ?qt_metacast@QsciLexerCPP@@UEAAPEAXPEBD@Z
    ?qt_metacast@QsciLexerCSS@@UEAAPEAXPEBD@Z
    ?qt_metacast@QsciLexerCSharp@@UEAAPEAXPEBD@Z
    ?qt_metacast@QsciLexerCoffeeScript@@UEAAPEAXPEBD@Z
    ?qt_metacast@QsciLexerCustom@@UEAAPEAXPEBD@Z
    ?qt_metacast@QsciLexerD@@UEAAPEAXPEBD@Z
    ?qt_metacast@QsciLexerDiff@@UEAAPEAXPEBD@Z
    ?qt_metacast@QsciLexerEDIFACT@@UEAAPEAXPEBD@Z
    ?qt_metacast@QsciLexerFortran77@@UEAAPEAXPEBD@Z
    ?qt_metacast@QsciLexerFortran@@UEAAPEAXPEBD@Z
    ?qt_metacast@QsciLexerGCode@@UEAAPEAXPEBD@Z
    ?qt_metacast@QsciLexerGO@@UEAAPEAXPEBD@Z
    ?qt_metacast@QsciLexerGlobal@@UEAAPEAXPEBD@Z
    ?qt_metacast@QsciLexerHTML@@UEAAPEAXPEBD@Z
    ?qt_metacast@QsciLexerHex@@UEAAPEAXPEBD@Z
    ?qt_metacast@QsciLexerIDL@@UEAAPEAXPEBD@Z
    ?qt_metacast@QsciLexerIntelHex@@UEAAPEAXPEBD@Z
    ?qt_metacast@QsciLexerJSON@@UEAAPEAXPEBD@Z
    ?qt_metacast@QsciLexerJava@@UEAAPEAXPEBD@Z
    ?qt_metacast@QsciLexerJavaScript@@UEAAPEAXPEBD@Z
    ?qt_metacast@QsciLexerLisp@@UEAAPEAXPEBD@Z
    ?qt_metacast@QsciLexerLog@@UEAAPEAXPEBD@Z
    ?qt_metacast@QsciLexerLua@@UEAAPEAXPEBD@Z
    ?qt_metacast@QsciLexerMASM@@UEAAPEAXPEBD@Z
    ?qt_metacast@QsciLexerMakefile@@UEAAPEAXPEBD@Z
    ?qt_metacast@QsciLexerMarkdown@@UEAAPEAXPEBD@Z
    ?qt_metacast@QsciLexerMatlab@@UEAAPEAXPEBD@Z
    ?qt_metacast@QsciLexerNASM@@UEAAPEAXPEBD@Z
    ?qt_metacast@QsciLexerNsis@@UEAAPEAXPEBD@Z
    ?qt_metacast@QsciLexerOctave@@UEAAPEAXPEBD@Z
    ?qt_metacast@QsciLexerPO@@UEAAPEAXPEBD@Z
    ?qt_metacast@QsciLexerPOV@@UEAAPEAXPEBD@Z
    ?qt_metacast@QsciLexerPascal@@UEAAPEAXPEBD@Z
    ?qt_metacast@QsciLexerPerl@@UEAAPEAXPEBD@Z
    ?qt_metacast@QsciLexerPostScript@@UEAAPEAXPEBD@Z
    ?qt_metacast@QsciLexerPowerShell@@UEAAPEAXPEBD@Z
    ?qt_metacast@QsciLexerProperties@@UEAAPEAXPEBD@Z
    ?qt_metacast@QsciLexerPython@@UEAAPEAXPEBD@Z
    ?qt_metacast@QsciLexerR@@UEAAPEAXPEBD@Z
    ?qt_metacast@QsciLexerRuby@@UEAAPEAXPEBD@Z
    ?qt_metacast@QsciLexerRust@@UEAAPEAXPEBD@Z
    ?qt_metacast@QsciLexerSQL@@UEAAPEAXPEBD@Z
    ?qt_metacast@QsciLexerSRec@@UEAAPEAXPEBD@Z
    ?qt_metacast@QsciLexerSpice@@UEAAPEAXPEBD@Z
    ?qt_metacast@QsciLexerTCL@@UEAAPEAXPEBD@Z
    ?qt_metacast@QsciLexerTeX@@UEAAPEAXPEBD@Z
    ?qt_metacast@QsciLexerTekHex@@UEAAPEAXPEBD@Z
    ?qt_metacast@QsciLexerText@@UEAAPEAXPEBD@Z
    ?qt_metacast@QsciLexerVB@@UEAAPEAXPEBD@Z
    ?qt_metacast@QsciLexerVHDL@@UEAAPEAXPEBD@Z
    ?qt_metacast@QsciLexerVerilog@@UEAAPEAXPEBD@Z
    ?qt_metacast@QsciLexerXML@@UEAAPEAXPEBD@Z
    ?qt_metacast@QsciLexerYAML@@UEAAPEAXPEBD@Z
    ?qt_metacast@QsciMacro@@UEAAPEAXPEBD@Z
    ?qt_metacast@QsciScintilla@@UEAAPEAXPEBD@Z
    ?qt_metacast@QsciScintillaBase@@UEAAPEAXPEBD@Z
    ?qt_static_metacall@QsciAPIs@@CAXPEAVQObject@@W4Call@QMetaObject@@HPEAPEAX@Z
    ?qt_static_metacall@QsciAbstractAPIs@@CAXPEAVQObject@@W4Call@QMetaObject@@HPEAPEAX@Z
    ?qt_static_metacall@QsciLexer@@CAXPEAVQObject@@W4Call@QMetaObject@@HPEAPEAX@Z
    ?qt_static_metacall@QsciLexerApdl@@CAXPEAVQObject@@W4Call@QMetaObject@@HPEAPEAX@Z
    ?qt_static_metacall@QsciLexerAsm@@CAXPEAVQObject@@W4Call@QMetaObject@@HPEAPEAX@Z
    ?qt_static_metacall@QsciLexerBash@@CAXPEAVQObject@@W4Call@QMetaObject@@HPEAPEAX@Z
    ?qt_static_metacall@QsciLexerBatch@@CAXPEAVQObject@@W4Call@QMetaObject@@HPEAPEAX@Z
    ?qt_static_metacall@QsciLexerCMake@@CAXPEAVQObject@@W4Call@QMetaObject@@HPEAPEAX@Z
    ?qt_static_metacall@QsciLexerCPP@@CAXPEAVQObject@@W4Call@QMetaObject@@HPEAPEAX@Z
    ?qt_static_metacall@QsciLexerCSS@@CAXPEAVQObject@@W4Call@QMetaObject@@HPEAPEAX@Z
    ?qt_static_metacall@QsciLexerCSharp@@CAXPEAVQObject@@W4Call@QMetaObject@@HPEAPEAX@Z
    ?qt_static_metacall@QsciLexerCoffeeScript@@CAXPEAVQObject@@W4Call@QMetaObject@@HPEAPEAX@Z
    ?qt_static_metacall@QsciLexerCustom@@CAXPEAVQObject@@W4Call@QMetaObject@@HPEAPEAX@Z
    ?qt_static_metacall@QsciLexerD@@CAXPEAVQObject@@W4Call@QMetaObject@@HPEAPEAX@Z
    ?qt_static_metacall@QsciLexerDiff@@CAXPEAVQObject@@W4Call@QMetaObject@@HPEAPEAX@Z
    ?qt_static_metacall@QsciLexerEDIFACT@@CAXPEAVQObject@@W4Call@QMetaObject@@HPEAPEAX@Z
    ?qt_static_metacall@QsciLexerFortran77@@CAXPEAVQObject@@W4Call@QMetaObject@@HPEAPEAX@Z
    ?qt_static_metacall@QsciLexerFortran@@CAXPEAVQObject@@W4Call@QMetaObject@@HPEAPEAX@Z
    ?qt_static_metacall@QsciLexerGCode@@CAXPEAVQObject@@W4Call@QMetaObject@@HPEAPEAX@Z
    ?qt_static_metacall@QsciLexerGO@@CAXPEAVQObject@@W4Call@QMetaObject@@HPEAPEAX@Z
    ?qt_static_metacall@QsciLexerGlobal@@CAXPEAVQObject@@W4Call@QMetaObject@@HPEAPEAX@Z
    ?qt_static_metacall@QsciLexerHTML@@CAXPEAVQObject@@W4Call@QMetaObject@@HPEAPEAX@Z
    ?qt_static_metacall@QsciLexerHex@@CAXPEAVQObject@@W4Call@QMetaObject@@HPEAPEAX@Z
    ?qt_static_metacall@QsciLexerIDL@@CAXPEAVQObject@@W4Call@QMetaObject@@HPEAPEAX@Z
    ?qt_static_metacall@QsciLexerIntelHex@@CAXPEAVQObject@@W4Call@QMetaObject@@HPEAPEAX@Z
    ?qt_static_metacall@QsciLexerJSON@@CAXPEAVQObject@@W4Call@QMetaObject@@HPEAPEAX@Z
    ?qt_static_metacall@QsciLexerJava@@CAXPEAVQObject@@W4Call@QMetaObject@@HPEAPEAX@Z
    ?qt_static_metacall@QsciLexerJavaScript@@CAXPEAVQObject@@W4Call@QMetaObject@@HPEAPEAX@Z
    ?qt_static_metacall@QsciLexerLisp@@CAXPEAVQObject@@W4Call@QMetaObject@@HPEAPEAX@Z
    ?qt_static_metacall@QsciLexerLog@@CAXPEAVQObject@@W4Call@QMetaObject@@HPEAPEAX@Z
    ?qt_static_metacall@QsciLexerLua@@CAXPEAVQObject@@W4Call@QMetaObject@@HPEAPEAX@Z
    ?qt_static_metacall@QsciLexerMASM@@CAXPEAVQObject@@W4Call@QMetaObject@@HPEAPEAX@Z
    ?qt_static_metacall@QsciLexerMakefile@@CAXPEAVQObject@@W4Call@QMetaObject@@HPEAPEAX@Z
    ?qt_static_metacall@QsciLexerMarkdown@@CAXPEAVQObject@@W4Call@QMetaObject@@HPEAPEAX@Z
    ?qt_static_metacall@QsciLexerMatlab@@CAXPEAVQObject@@W4Call@QMetaObject@@HPEAPEAX@Z
    ?qt_static_metacall@QsciLexerNASM@@CAXPEAVQObject@@W4Call@QMetaObject@@HPEAPEAX@Z
    ?qt_static_metacall@QsciLexerNsis@@CAXPEAVQObject@@W4Call@QMetaObject@@HPEAPEAX@Z
    ?qt_static_metacall@QsciLexerOctave@@CAXPEAVQObject@@W4Call@QMetaObject@@HPEAPEAX@Z
    ?qt_static_metacall@QsciLexerPO@@CAXPEAVQObject@@W4Call@QMetaObject@@HPEAPEAX@Z
    ?qt_static_metacall@QsciLexerPOV@@CAXPEAVQObject@@W4Call@QMetaObject@@HPEAPEAX@Z
    ?qt_static_metacall@QsciLexerPascal@@CAXPEAVQObject@@W4Call@QMetaObject@@HPEAPEAX@Z
    ?qt_static_metacall@QsciLexerPerl@@CAXPEAVQObject@@W4Call@QMetaObject@@HPEAPEAX@Z
    ?qt_static_metacall@QsciLexerPostScript@@CAXPEAVQObject@@W4Call@QMetaObject@@HPEAPEAX@Z
    ?qt_static_metacall@QsciLexerPowerShell@@CAXPEAVQObject@@W4Call@QMetaObject@@HPEAPEAX@Z
    ?qt_static_metacall@QsciLexerProperties@@CAXPEAVQObject@@W4Call@QMetaObject@@HPEAPEAX@Z
    ?qt_static_metacall@QsciLexerPython@@CAXPEAVQObject@@W4Call@QMetaObject@@HPEAPEAX@Z
    ?qt_static_metacall@QsciLexerR@@CAXPEAVQObject@@W4Call@QMetaObject@@HPEAPEAX@Z
    ?qt_static_metacall@QsciLexerRuby@@CAXPEAVQObject@@W4Call@QMetaObject@@HPEAPEAX@Z
    ?qt_static_metacall@QsciLexerRust@@CAXPEAVQObject@@W4Call@QMetaObject@@HPEAPEAX@Z
    ?qt_static_metacall@QsciLexerSQL@@CAXPEAVQObject@@W4Call@QMetaObject@@HPEAPEAX@Z
    ?qt_static_metacall@QsciLexerSRec@@CAXPEAVQObject@@W4Call@QMetaObject@@HPEAPEAX@Z
    ?qt_static_metacall@QsciLexerSpice@@CAXPEAVQObject@@W4Call@QMetaObject@@HPEAPEAX@Z
    ?qt_static_metacall@QsciLexerTCL@@CAXPEAVQObject@@W4Call@QMetaObject@@HPEAPEAX@Z
    ?qt_static_metacall@QsciLexerTeX@@CAXPEAVQObject@@W4Call@QMetaObject@@HPEAPEAX@Z
    ?qt_static_metacall@QsciLexerTekHex@@CAXPEAVQObject@@W4Call@QMetaObject@@HPEAPEAX@Z
    ?qt_static_metacall@QsciLexerText@@CAXPEAVQObject@@W4Call@QMetaObject@@HPEAPEAX@Z
    ?qt_static_metacall@QsciLexerVB@@CAXPEAVQObject@@W4Call@QMetaObject@@HPEAPEAX@Z
    ?qt_static_metacall@QsciLexerVHDL@@CAXPEAVQObject@@W4Call@QMetaObject@@HPEAPEAX@Z
    ?qt_static_metacall@QsciLexerVerilog@@CAXPEAVQObject@@W4Call@QMetaObject@@HPEAPEAX@Z
    ?qt_static_metacall@QsciLexerXML@@CAXPEAVQObject@@W4Call@QMetaObject@@HPEAPEAX@Z
    ?qt_static_metacall@QsciLexerYAML@@CAXPEAVQObject@@W4Call@QMetaObject@@HPEAPEAX@Z
    ?qt_static_metacall@QsciMacro@@CAXPEAVQObject@@W4Call@QMetaObject@@HPEAPEAX@Z
    ?qt_static_metacall@QsciScintilla@@CAXPEAVQObject@@W4Call@QMetaObject@@HPEAPEAX@Z
    ?qt_static_metacall@QsciScintillaBase@@CAXPEAVQObject@@W4Call@QMetaObject@@HPEAPEAX@Z
    ?quotedIdentifiers@QsciLexerSQL@@QEBA_NXZ
    ?rangeIsWhitespace@QsciScintilla@@AEAA_NJJ@Z
    ?read@QsciScintilla@@QEAA_NPEAVQIODevice@@@Z
    ?readProperties@QsciLexer@@MEAA_NAEAVQSettings@@AEBVQString@@@Z
    ?readProperties@QsciLexerAsm@@MEAA_NAEAVQSettings@@AEBVQString@@@Z
    ?readProperties@QsciLexerBash@@MEAA_NAEAVQSettings@@AEBVQString@@@Z
    ?readProperties@QsciLexerCMake@@MEAA_NAEAVQSettings@@AEBVQString@@@Z
    ?readProperties@QsciLexerCPP@@MEAA_NAEAVQSettings@@AEBVQString@@@Z
    ?readProperties@QsciLexerCSS@@MEAA_NAEAVQSettings@@AEBVQString@@@Z
    ?readProperties@QsciLexerCoffeeScript@@MEAA_NAEAVQSettings@@AEBVQString@@@Z
    ?readProperties@QsciLexerD@@MEAA_NAEAVQSettings@@AEBVQString@@@Z
    ?readProperties@QsciLexerFortran77@@MEAA_NAEAVQSettings@@AEBVQString@@@Z
    ?readProperties@QsciLexerHTML@@MEAA_NAEAVQSettings@@AEBVQString@@@Z
    ?readProperties@QsciLexerJSON@@MEAA_NAEAVQSettings@@AEBVQString@@@Z
    ?readProperties@QsciLexerLua@@MEAA_NAEAVQSettings@@AEBVQString@@@Z
    ?readProperties@QsciLexerPO@@MEAA_NAEAVQSettings@@AEBVQString@@@Z
    ?readProperties@QsciLexerPOV@@MEAA_NAEAVQSettings@@AEBVQString@@@Z
    ?readProperties@QsciLexerPascal@@MEAA_NAEAVQSettings@@AEBVQString@@@Z
    ?readProperties@QsciLexerPerl@@MEAA_NAEAVQSettings@@AEBVQString@@@Z
    ?readProperties@QsciLexerPostScript@@MEAA_NAEAVQSettings@@AEBVQString@@@Z
    ?readProperties@QsciLexerProperties@@MEAA_NAEAVQSettings@@AEBVQString@@@Z
    ?readProperties@QsciLexerPython@@MEAA_NAEAVQSettings@@AEBVQString@@@Z
    ?readProperties@QsciLexerRuby@@MEAA_NAEAVQSettings@@AEBVQString@@@Z
    ?readProperties@QsciLexerSQL@@MEAA_NAEAVQSettings@@AEBVQString@@@Z
    ?readProperties@QsciLexerTCL@@MEAA_NAEAVQSettings@@AEBVQString@@@Z
    ?readProperties@QsciLexerTeX@@MEAA_NAEAVQSettings@@AEBVQString@@@Z
    ?readProperties@QsciLexerVHDL@@MEAA_NAEAVQSettings@@AEBVQString@@@Z
    ?readProperties@QsciLexerVerilog@@MEAA_NAEAVQSettings@@AEBVQString@@@Z
    ?readProperties@QsciLexerXML@@MEAA_NAEAVQSettings@@AEBVQString@@@Z
    ?readProperties@QsciLexerYAML@@MEAA_NAEAVQSettings@@AEBVQString@@@Z
    ?readSettings@QsciCommandSet@@QEAA_NAEAVQSettings@@PEBD@Z
    ?readSettings@QsciLexer@@QEAA_NAEAVQSettings@@PEBD1@Z
    ?readUserShutKey@QsciCommandSet@@QEAAXXZ
    ?recolor@QsciScintilla@@UEAAXHH@Z
    ?record@QsciMacro@@AEAAXIKPEAX@Z
    ?redo@QsciScintilla@@UEAAXXZ
    ?refresh@QsciStyle@@QEAAXXZ
    ?refreshProperties@QsciLexer@@UEAAXXZ
    ?refreshProperties@QsciLexerAsm@@UEAAXXZ
    ?refreshProperties@QsciLexerBash@@UEAAXXZ
    ?refreshProperties@QsciLexerCMake@@UEAAXXZ
    ?refreshProperties@QsciLexerCPP@@UEAAXXZ
    ?refreshProperties@QsciLexerCSS@@UEAAXXZ
    ?refreshProperties@QsciLexerCoffeeScript@@UEAAXXZ
    ?refreshProperties@QsciLexerD@@UEAAXXZ
    ?refreshProperties@QsciLexerFortran77@@UEAAXXZ
    ?refreshProperties@QsciLexerHTML@@UEAAXXZ
    ?refreshProperties@QsciLexerJSON@@UEAAXXZ
    ?refreshProperties@QsciLexerLua@@UEAAXXZ
    ?refreshProperties@QsciLexerPO@@UEAAXXZ
    ?refreshProperties@QsciLexerPOV@@UEAAXXZ
    ?refreshProperties@QsciLexerPascal@@UEAAXXZ
    ?refreshProperties@QsciLexerPerl@@UEAAXXZ
    ?refreshProperties@QsciLexerPostScript@@UEAAXXZ
    ?refreshProperties@QsciLexerProperties@@UEAAXXZ
    ?refreshProperties@QsciLexerPython@@UEAAXXZ
    ?refreshProperties@QsciLexerRuby@@UEAAXXZ
    ?refreshProperties@QsciLexerSQL@@UEAAXXZ
    ?refreshProperties@QsciLexerTCL@@UEAAXXZ
    ?refreshProperties@QsciLexerTeX@@UEAAXXZ
    ?refreshProperties@QsciLexerVHDL@@UEAAXXZ
    ?refreshProperties@QsciLexerVerilog@@UEAAXXZ
    ?refreshProperties@QsciLexerXML@@UEAAXXZ
    ?refreshProperties@QsciLexerYAML@@UEAAXXZ
    ?registerImage@QsciScintilla@@QEAAXHAEBVQImage@@@Z
    ?registerImage@QsciScintilla@@QEAAXHAEBVQPixmap@@@Z
    ?remove@QsciAPIs@@QEAAXAEBVQString@@@Z
    ?removeSelectedText@QsciScintilla@@UEAAXXZ
    ?replaceHorizontalScrollBar@QsciScintillaBase@@QEAAXPEAVQScrollBar@@@Z
    ?replaceSelectedText@QsciScintilla@@UEAAXAEBVQString@@@Z
    ?replaceVerticalScrollBar@QsciScintillaBase@@QEAAXPEAVQScrollBar@@@Z
    ?resetFoldMarginColors@QsciScintilla@@QEAAXXZ
    ?resetHotspotBackgroundColor@QsciScintilla@@QEAAXXZ
    ?resetHotspotForegroundColor@QsciScintilla@@QEAAXXZ
    ?resetMatchedBraceIndicator@QsciScintilla@@QEAAXXZ
    ?resetSelectionBackgroundColor@QsciScintilla@@UEAAXXZ
    ?resetSelectionForegroundColor@QsciScintilla@@UEAAXXZ
    ?resetStyleDefaults@QsciLexer@@QEAAXXZ
    ?resetUnmatchedBraceIndicator@QsciScintilla@@QEAAXXZ
    ?resizeEvent@QsciScintillaBase@@MEAAXPEAVQResizeEvent@@@Z
    ?s_defaultFontSize@QsciLexer@@2HA
    ?s_defaultLangFont@QsciLexer@@2VQFont@@A
    ?s_defaultTxtFont@QsciLexerText@@0VQFont@@A
    ?save@QsciMacro@@QEBA?AVQString@@XZ
    ?savePrepared@QsciAPIs@@QEBA_NAEBVQString@@@Z
    ?saveUserDefQsciShutkey@QsciCommandSet@@QEAAXXZ
    ?scriptsStyled@QsciLexerXML@@QEBA_NXZ
    ?scrollContentsBy@QsciScintillaBase@@MEAAXHH@Z
    ?scrollWidth@QsciScintilla@@QEBAHXZ
    ?scrollWidthTracking@QsciScintilla@@QEBA_NXZ
    ?searchInTarget@QsciScintilla@@QEBA_JAEAVQByteArray@@_K1@Z
    ?selectAll@QsciScintilla@@UEAAX_N@Z
    ?selectToMatchingBrace@QsciScintilla@@UEAAXXZ
    ?selectedRawBytes@QsciScintilla@@QEBA_NAEAVQByteArray@@@Z
    ?selectedText@QsciScintilla@@QEBA?AVQString@@XZ
    ?selectionChanged@QsciScintilla@@QEAAXXZ
    ?selectionToEol@QsciScintilla@@QEBA_NXZ
    ?setAPIs@QsciLexer@@QEAAXPEAVQsciAbstractAPIs@@@Z
    ?setAllowCommentsProp@QsciLexerJSON@@AEAAXXZ
    ?setAllowDottedWordProp@QsciLexerSQL@@AEAAXXZ
    ?setAlternateKey@QsciCommand@@QEAAXH@Z
    ?setAnnotationDisplay@QsciScintilla@@QEAAXW4AnnotationDisplay@1@@Z
    ?setAtBeginProp@QsciLexerVHDL@@AEAAXXZ
    ?setAtElseProp@QsciLexerCMake@@AEAAXXZ
    ?setAtElseProp@QsciLexerCPP@@AEAAXXZ
    ?setAtElseProp@QsciLexerD@@AEAAXXZ
    ?setAtElseProp@QsciLexerPerl@@AEAAXXZ
    ?setAtElseProp@QsciLexerPostScript@@AEAAXXZ
    ?setAtElseProp@QsciLexerSQL@@AEAAXXZ
    ?setAtElseProp@QsciLexerVHDL@@AEAAXXZ
    ?setAtElseProp@QsciLexerVerilog@@AEAAXXZ
    ?setAtModuleProp@QsciLexerVerilog@@AEAAXXZ
    ?setAtParenthProp@QsciLexerVHDL@@AEAAXXZ
    ?setAutoCompletionCaseSensitivity@QsciScintilla@@UEAAX_N@Z
    ?setAutoCompletionFillups@QsciScintilla@@QEAAXPEBD@Z
    ?setAutoCompletionFillupsEnabled@QsciScintilla@@QEAAX_N@Z
    ?setAutoCompletionReplaceWord@QsciScintilla@@UEAAX_N@Z
    ?setAutoCompletionShowSingle@QsciScintilla@@UEAAX_N@Z
    ?setAutoCompletionSource@QsciScintilla@@UEAAXW4AutoCompletionSource@1@@Z
    ?setAutoCompletionThreshold@QsciScintilla@@UEAAXH@Z
    ?setAutoCompletionUseSingle@QsciScintilla@@UEAAXW4AutoCompletionUseSingle@1@@Z
    ?setAutoCompletionWordSeparators@QsciScintilla@@QEAAXAEBVQStringList@@@Z
    ?setAutoIfProp@QsciLexerTeX@@AEAAXXZ
    ?setAutoIndent@QsciScintilla@@UEAAX_N@Z
    ?setAutoIndentStyle@QsciLexer@@UEAAXH@Z
    ?setBackslashEscapes@QsciLexerSQL@@UEAAX_N@Z
    ?setBackslashEscapesProp@QsciLexerSQL@@AEAAXXZ
    ?setBackspaceUnindents@QsciScintilla@@UEAAX_N@Z
    ?setBackticksIdentifierProp@QsciLexerSQL@@AEAAXXZ
    ?setBraceMatching@QsciScintilla@@UEAAXW4BraceMatch@1@@Z
    ?setCallTipsBackgroundColor@QsciScintilla@@QEAAXAEBVQColor@@@Z
    ?setCallTipsForegroundColor@QsciScintilla@@QEAAXAEBVQColor@@@Z
    ?setCallTipsHighlightColor@QsciScintilla@@QEAAXAEBVQColor@@@Z
    ?setCallTipsPosition@QsciScintilla@@QEAAXW4CallTipsPosition@1@@Z
    ?setCallTipsStyle@QsciScintilla@@QEAAXW4CallTipsStyle@1@@Z
    ?setCallTipsVisible@QsciScintilla@@QEAAXH@Z
    ?setCaretForegroundColor@QsciScintilla@@UEAAXAEBVQColor@@@Z
    ?setCaretLineBackgroundColor@QsciScintilla@@UEAAXAEBVQColor@@@Z
    ?setCaretLineFrameWidth@QsciScintilla@@UEAAXH@Z
    ?setCaretLineVisible@QsciScintilla@@UEAAX_N@Z
    ?setCaretWidth@QsciScintilla@@UEAAXH@Z
    ?setCaseSensTagsProp@QsciLexerHTML@@AEAAXXZ
    ?setCaseSensitiveTags@QsciLexerHTML@@UEAAX_N@Z
    ?setChangeable@QsciStyle@@QEAAX_N@Z
    ?setColor@QsciLexer@@UEAAXAEBVQColor@@H@Z
    ?setColor@QsciScintilla@@UEAAXAEBVQColor@@@Z
    ?setColor@QsciStyle@@QEAAXAEBVQColor@@@Z
    ?setCommentDelimiter@QsciLexerAsm@@UEAAXVQChar@@@Z
    ?setCommentDelimiterProp@QsciLexerAsm@@AEAAXXZ
    ?setCommentEnd@QsciLexer@@QEAAXVQByteArray@@@Z
    ?setCommentLineSymbol@QsciLexer@@QEAAXVQByteArray@@@Z
    ?setCommentProp@QsciLexerAsm@@AEAAXXZ
    ?setCommentProp@QsciLexerBash@@AEAAXXZ
    ?setCommentProp@QsciLexerCPP@@AEAAXXZ
    ?setCommentProp@QsciLexerCSS@@AEAAXXZ
    ?setCommentProp@QsciLexerCoffeeScript@@AEAAXXZ
    ?setCommentProp@QsciLexerD@@AEAAXXZ
    ?setCommentProp@QsciLexerPO@@AEAAXXZ
    ?setCommentProp@QsciLexerPOV@@AEAAXXZ
    ?setCommentProp@QsciLexerPascal@@AEAAXXZ
    ?setCommentProp@QsciLexerPerl@@AEAAXXZ
    ?setCommentProp@QsciLexerPython@@AEAAXXZ
    ?setCommentProp@QsciLexerRuby@@AEAAXXZ
    ?setCommentProp@QsciLexerSQL@@AEAAXXZ
    ?setCommentProp@QsciLexerTCL@@AEAAXXZ
    ?setCommentProp@QsciLexerTeX@@AEAAXXZ
    ?setCommentProp@QsciLexerVHDL@@AEAAXXZ
    ?setCommentProp@QsciLexerVerilog@@AEAAXXZ
    ?setCommentProp@QsciLexerYAML@@AEAAXXZ
    ?setCommentStart@QsciLexer@@QEAAXVQByteArray@@@Z
    ?setCompactProp@QsciLexerAsm@@AEAAXXZ
    ?setCompactProp@QsciLexerBash@@AEAAXXZ
    ?setCompactProp@QsciLexerCPP@@AEAAXXZ
    ?setCompactProp@QsciLexerCSS@@AEAAXXZ
    ?setCompactProp@QsciLexerCoffeeScript@@AEAAXXZ
    ?setCompactProp@QsciLexerD@@AEAAXXZ
    ?setCompactProp@QsciLexerFortran77@@AEAAXXZ
    ?setCompactProp@QsciLexerHTML@@AEAAXXZ
    ?setCompactProp@QsciLexerJSON@@AEAAXXZ
    ?setCompactProp@QsciLexerLua@@AEAAXXZ
    ?setCompactProp@QsciLexerPO@@AEAAXXZ
    ?setCompactProp@QsciLexerPOV@@AEAAXXZ
    ?setCompactProp@QsciLexerPascal@@AEAAXXZ
    ?setCompactProp@QsciLexerPerl@@AEAAXXZ
    ?setCompactProp@QsciLexerPostScript@@AEAAXXZ
    ?setCompactProp@QsciLexerProperties@@AEAAXXZ
    ?setCompactProp@QsciLexerPython@@AEAAXXZ
    ?setCompactProp@QsciLexerRuby@@AEAAXXZ
    ?setCompactProp@QsciLexerSQL@@AEAAXXZ
    ?setCompactProp@QsciLexerTeX@@AEAAXXZ
    ?setCompactProp@QsciLexerVHDL@@AEAAXXZ
    ?setCompactProp@QsciLexerVerilog@@AEAAXXZ
    ?setContractedFolds@QsciScintilla@@QEAAXAEBV?$QList@H@@@Z
    ?setCurThemes@QsciLexer@@SAXH@Z
    ?setCursorPosition@QsciScintilla@@UEAAXHH@Z
    ?setDefaultColor@QsciLexer@@QEAAXAEBVQColor@@@Z
    ?setDefaultFont@QsciLexer@@QEAAXAEBVQFont@@@Z
    ?setDefaultPaper@QsciLexer@@QEAAXAEBVQColor@@@Z
    ?setDescription@QsciStyle@@QEAAXAEBVQString@@@Z
    ?setDirectiveProp@QsciLexerPOV@@AEAAXXZ
    ?setDjangoProp@QsciLexerHTML@@AEAAXXZ
    ?setDjangoTemplates@QsciLexerHTML@@QEAAX_N@Z
    ?setDocument@QsciScintilla@@QEAAXAEBVQsciDocument@@@Z
    ?setDollarsAllowed@QsciLexerCPP@@QEAAX_N@Z
    ?setDollarsAllowed@QsciLexerCoffeeScript@@QEAAX_N@Z
    ?setDollarsProp@QsciLexerCPP@@AEAAXXZ
    ?setDollarsProp@QsciLexerCoffeeScript@@AEAAXXZ
    ?setDottedWords@QsciLexerSQL@@QEAAX_N@Z
    ?setEdgeColor@QsciScintilla@@QEAAXAEBVQColor@@@Z
    ?setEdgeColumn@QsciScintilla@@QEAAXH@Z
    ?setEdgeMode@QsciScintilla@@QEAAXW4EdgeMode@1@@Z
    ?setEditor@QsciLexer@@UEAAXPEAVQsciScintilla@@@Z
    ?setEditor@QsciLexerCustom@@UEAAXPEAVQsciScintilla@@@Z
    ?setEnabledColors@QsciScintilla@@AEAAXHAEAVQColor@@0@Z
    ?setEolFill@QsciLexer@@UEAAX_NH@Z
    ?setEolFill@QsciStyle@@QEAAX_N@Z
    ?setEolMode@QsciScintilla@@UEAAXW4EolMode@1@@Z
    ?setEolVisibility@QsciScintilla@@UEAAX_N@Z
    ?setEscapeSequenceProp@QsciLexerJSON@@AEAAXXZ
    ?setExtraAscent@QsciScintilla@@QEAAXH@Z
    ?setExtraDescent@QsciScintilla@@QEAAXH@Z
    ?setFirstVisibleLine@QsciScintilla@@QEAAXH@Z
    ?setFoldAtBegin@QsciLexerVHDL@@UEAAX_N@Z
    ?setFoldAtElse@QsciLexerCMake@@UEAAX_N@Z
    ?setFoldAtElse@QsciLexerCPP@@UEAAX_N@Z
    ?setFoldAtElse@QsciLexerD@@UEAAX_N@Z
    ?setFoldAtElse@QsciLexerPerl@@QEAAX_N@Z
    ?setFoldAtElse@QsciLexerPostScript@@UEAAX_N@Z
    ?setFoldAtElse@QsciLexerSQL@@QEAAX_N@Z
    ?setFoldAtElse@QsciLexerVHDL@@UEAAX_N@Z
    ?setFoldAtElse@QsciLexerVerilog@@QEAAX_N@Z
    ?setFoldAtModule@QsciLexerVerilog@@QEAAX_N@Z
    ?setFoldAtParenthesis@QsciLexerVHDL@@UEAAX_N@Z
    ?setFoldComments@QsciLexerAsm@@UEAAX_N@Z
    ?setFoldComments@QsciLexerBash@@UEAAX_N@Z
    ?setFoldComments@QsciLexerCPP@@UEAAX_N@Z
    ?setFoldComments@QsciLexerCSS@@UEAAX_N@Z
    ?setFoldComments@QsciLexerCoffeeScript@@QEAAX_N@Z
    ?setFoldComments@QsciLexerD@@UEAAX_N@Z
    ?setFoldComments@QsciLexerPO@@UEAAX_N@Z
    ?setFoldComments@QsciLexerPOV@@UEAAX_N@Z
    ?setFoldComments@QsciLexerPascal@@UEAAX_N@Z
    ?setFoldComments@QsciLexerPerl@@UEAAX_N@Z
    ?setFoldComments@QsciLexerPython@@UEAAX_N@Z
    ?setFoldComments@QsciLexerRuby@@QEAAX_N@Z
    ?setFoldComments@QsciLexerSQL@@UEAAX_N@Z
    ?setFoldComments@QsciLexerTCL@@QEAAX_N@Z
    ?setFoldComments@QsciLexerTeX@@QEAAX_N@Z
    ?setFoldComments@QsciLexerVHDL@@UEAAX_N@Z
    ?setFoldComments@QsciLexerVerilog@@QEAAX_N@Z
    ?setFoldComments@QsciLexerYAML@@UEAAX_N@Z
    ?setFoldCompact@QsciLexerAsm@@UEAAX_N@Z
    ?setFoldCompact@QsciLexerBash@@UEAAX_N@Z
    ?setFoldCompact@QsciLexerCPP@@UEAAX_N@Z
    ?setFoldCompact@QsciLexerCSS@@UEAAX_N@Z
    ?setFoldCompact@QsciLexerCoffeeScript@@QEAAX_N@Z
    ?setFoldCompact@QsciLexerD@@UEAAX_N@Z
    ?setFoldCompact@QsciLexerFortran77@@UEAAX_N@Z
    ?setFoldCompact@QsciLexerHTML@@UEAAX_N@Z
    ?setFoldCompact@QsciLexerJSON@@QEAAX_N@Z
    ?setFoldCompact@QsciLexerLua@@UEAAX_N@Z
    ?setFoldCompact@QsciLexerPO@@UEAAX_N@Z
    ?setFoldCompact@QsciLexerPOV@@UEAAX_N@Z
    ?setFoldCompact@QsciLexerPascal@@UEAAX_N@Z
    ?setFoldCompact@QsciLexerPerl@@UEAAX_N@Z
    ?setFoldCompact@QsciLexerPostScript@@UEAAX_N@Z
    ?setFoldCompact@QsciLexerProperties@@UEAAX_N@Z
    ?setFoldCompact@QsciLexerPython@@QEAAX_N@Z
    ?setFoldCompact@QsciLexerRuby@@QEAAX_N@Z
    ?setFoldCompact@QsciLexerSQL@@UEAAX_N@Z
    ?setFoldCompact@QsciLexerTeX@@QEAAX_N@Z
    ?setFoldCompact@QsciLexerVHDL@@UEAAX_N@Z
    ?setFoldCompact@QsciLexerVerilog@@QEAAX_N@Z
    ?setFoldDirectives@QsciLexerPOV@@UEAAX_N@Z
    ?setFoldMarginColors@QsciScintilla@@QEAAXAEBVQColor@@0@Z
    ?setFoldMarker@QsciScintilla@@AEAAXHH@Z
    ?setFoldOnlyBegin@QsciLexerSQL@@QEAAX_N@Z
    ?setFoldPODBlocks@QsciLexerPerl@@QEAAX_N@Z
    ?setFoldPackages@QsciLexerPerl@@QEAAX_N@Z
    ?setFoldPreprocessor@QsciLexerCPP@@UEAAX_N@Z
    ?setFoldPreprocessor@QsciLexerHTML@@UEAAX_N@Z
    ?setFoldPreprocessor@QsciLexerPascal@@UEAAX_N@Z
    ?setFoldPreprocessor@QsciLexerVerilog@@QEAAX_N@Z
    ?setFoldQuotes@QsciLexerPython@@UEAAX_N@Z
    ?setFoldScriptComments@QsciLexerHTML@@QEAAX_N@Z
    ?setFoldScriptHeredocs@QsciLexerHTML@@QEAAX_N@Z
    ?setFoldSyntaxBased@QsciLexerAsm@@UEAAX_N@Z
    ?setFolding@QsciScintilla@@UEAAXW4FoldStyle@1@H@Z
    ?setFont@QsciLexer@@UEAAXAEBVQFont@@H@Z
    ?setFont@QsciScintilla@@QEAAXAEBVQFont@@@Z
    ?setFont@QsciStyle@@QEAAXAEBVQFont@@@Z
    ?setGlobalDefaultFont@QsciLexerText@@SAXAEBVQFont@@@Z
    ?setHSSLanguage@QsciLexerCSS@@QEAAX_N@Z
    ?setHSSProp@QsciLexerCSS@@AEAAXXZ
    ?setHashComments@QsciLexerSQL@@QEAAX_N@Z
    ?setHighlightBackProp@QsciLexerCPP@@AEAAXXZ
    ?setHighlightBackQuotedStrings@QsciLexerCPP@@QEAAX_N@Z
    ?setHighlightComments@QsciLexerJSON@@QEAAX_N@Z
    ?setHighlightEscapeProp@QsciLexerCPP@@AEAAXXZ
    ?setHighlightEscapeSequences@QsciLexerCPP@@QEAAX_N@Z
    ?setHighlightEscapeSequences@QsciLexerJSON@@QEAAX_N@Z
    ?setHighlightHashProp@QsciLexerCPP@@AEAAXXZ
    ?setHighlightHashQuotedStrings@QsciLexerCPP@@QEAAX_N@Z
    ?setHighlightSubidentifiers@QsciLexerPython@@QEAAX_N@Z
    ?setHighlightSubidsProp@QsciLexerPython@@AEAAXXZ
    ?setHighlightTripleProp@QsciLexerCPP@@AEAAXXZ
    ?setHighlightTripleQuotedStrings@QsciLexerCPP@@QEAAX_N@Z
    ?setHotspot@QsciStyle@@QEAAX_N@Z
    ?setHotspotBackgroundColor@QsciScintilla@@QEAAXAEBVQColor@@@Z
    ?setHotspotForegroundColor@QsciScintilla@@QEAAXAEBVQColor@@@Z
    ?setHotspotUnderline@QsciScintilla@@QEAAX_N@Z
    ?setHotspotWrap@QsciScintilla@@QEAAX_N@Z
    ?setHtmlHighLightTag@QsciScintilla@@QEAAX_N@Z
    ?setIndentGuide@QsciScintilla@@QEAAX_N@Z
    ?setIndentation@QsciScintilla@@UEAAXHH@Z
    ?setIndentationGuides@QsciScintilla@@UEAAX_N@Z
    ?setIndentationGuidesBackgroundColor@QsciScintilla@@UEAAXAEBVQColor@@@Z
    ?setIndentationGuidesForegroundColor@QsciScintilla@@UEAAXAEBVQColor@@@Z
    ?setIndentationWarning@QsciLexerPython@@UEAAXW4IndentationWarning@1@@Z
    ?setIndentationWidth@QsciScintilla@@UEAAXH@Z
    ?setIndentationsUseTabs@QsciScintilla@@UEAAX_N@Z
    ?setIndicatorDrawUnder@QsciScintilla@@QEAAX_NH@Z
    ?setIndicatorForegroundColor@QsciScintilla@@QEAAXAEBVQColor@@H@Z
    ?setIndicatorHoverForegroundColor@QsciScintilla@@QEAAXAEBVQColor@@H@Z
    ?setIndicatorHoverStyle@QsciScintilla@@QEAAXW4IndicatorStyle@1@H@Z
    ?setIndicatorOutlineColor@QsciScintilla@@QEAAXAEBVQColor@@H@Z
    ?setInitialSpaces@QsciLexerProperties@@QEAAX_N@Z
    ?setInitialSpacesProp@QsciLexerProperties@@AEAAXXZ
    ?setIsUserDefineKeywords@QsciLexer@@QEAAX_N@Z
    ?setKey@QsciCommand@@QEAAXH@Z
    ?setLessLanguage@QsciLexerCSS@@QEAAX_N@Z
    ?setLessProp@QsciLexerCSS@@AEAAXXZ
    ?setLevel@QsciLexerPostScript@@UEAAXH@Z
    ?setLevelProp@QsciLexerPostScript@@AEAAXXZ
    ?setLexer@QsciScintilla@@UEAAXPEAVQsciLexer@@@Z
    ?setLexerId@QsciLexer@@QEAAXH@Z
    ?setLexerStyle@QsciScintilla@@AEAAXH@Z
    ?setLexerTag@QsciLexer@@QEAAXVQString@@@Z
    ?setLineIndent@QsciScintilla@@AEBAXHH@Z
    ?setMagnification@QsciPrinter@@UEAAXH@Z
    ?setMakoProp@QsciLexerHTML@@AEAAXXZ
    ?setMakoTemplates@QsciLexerHTML@@QEAAX_N@Z
    ?setMarginBackgroundColor@QsciScintilla@@QEAAXHAEBVQColor@@@Z
    ?setMarginLineNumbers@QsciScintilla@@UEAAXH_N@Z
    ?setMarginMarkerMask@QsciScintilla@@UEAAXHH@Z
    ?setMarginOptions@QsciScintilla@@QEAAXH@Z
    ?setMarginSensitivity@QsciScintilla@@UEAAXH_N@Z
    ?setMarginText@QsciScintilla@@QEAAXHAEBV?$QList@VQsciStyledText@@@@@Z
    ?setMarginText@QsciScintilla@@QEAAXHAEBVQString@@AEBVQsciStyle@@@Z
    ?setMarginText@QsciScintilla@@QEAAXHAEBVQString@@H@Z
    ?setMarginText@QsciScintilla@@QEAAXHAEBVQsciStyledText@@@Z
    ?setMarginType@QsciScintilla@@QEAAXHW4MarginType@1@@Z
    ?setMarginWidth@QsciScintilla@@UEAAXHAEBVQString@@@Z
    ?setMarginWidth@QsciScintilla@@UEAAXHH@Z
    ?setMargins@QsciScintilla@@QEAAXH@Z
    ?setMarginsBackgroundColor@QsciScintilla@@UEAAXAEBVQColor@@@Z
    ?setMarginsFont@QsciScintilla@@UEAAXAEBVQFont@@@Z
    ?setMarginsForegroundColor@QsciScintilla@@UEAAXAEBVQColor@@@Z
    ?setMarkerBackgroundColor@QsciScintilla@@QEAAXAEBVQColor@@H@Z
    ?setMarkerForegroundColor@QsciScintilla@@QEAAXAEBVQColor@@H@Z
    ?setMatchedBraceBackgroundColor@QsciScintilla@@QEAAXAEBVQColor@@@Z
    ?setMatchedBraceForegroundColor@QsciScintilla@@QEAAXAEBVQColor@@@Z
    ?setMatchedBraceIndicator@QsciScintilla@@QEAAXH@Z
    ?setModified@QsciDocument@@AEAAX_N@Z
    ?setModified@QsciScintilla@@UEAAX_N@Z
    ?setNumbersignCommentProp@QsciLexerSQL@@AEAAXXZ
    ?setOnlyBeginProp@QsciLexerSQL@@AEAAXXZ
    ?setOverwriteMode@QsciScintilla@@QEAAX_N@Z
    ?setPODBlocksProp@QsciLexerPerl@@AEAAXXZ
    ?setPackagesProp@QsciLexerPerl@@AEAAXXZ
    ?setPaper@QsciLexer@@UEAAXAEBVQColor@@H@Z
    ?setPaper@QsciScintilla@@UEAAXAEBVQColor@@@Z
    ?setPaper@QsciStyle@@QEAAXAEBVQColor@@@Z
    ?setPreprocProp@QsciLexerCPP@@AEAAXXZ
    ?setPreprocProp@QsciLexerHTML@@AEAAXXZ
    ?setPreprocProp@QsciLexerPascal@@AEAAXXZ
    ?setPreprocProp@QsciLexerVerilog@@AEAAXXZ
    ?setProLangeDefaultFont@QsciLexer@@SAXAEBVQFont@@@Z
    ?setProcessComments@QsciLexerTeX@@QEAAX_N@Z
    ?setProcessCommentsProp@QsciLexerTeX@@AEAAXXZ
    ?setProcessIf@QsciLexerTeX@@QEAAX_N@Z
    ?setQuotedIdentifiers@QsciLexerSQL@@QEAAX_N@Z
    ?setQuotesProp@QsciLexerPython@@AEAAXXZ
    ?setReadOnly@QsciScintilla@@UEAAX_N@Z
    ?setSCSSLanguage@QsciLexerCSS@@QEAAX_N@Z
    ?setSCSSProp@QsciLexerCSS@@AEAAXXZ
    ?setScriptCommentsProp@QsciLexerHTML@@AEAAXXZ
    ?setScriptHeredocsProp@QsciLexerHTML@@AEAAXXZ
    ?setScriptsProp@QsciLexerXML@@AEAAXXZ
    ?setScriptsStyled@QsciLexerXML@@QEAAX_N@Z
    ?setScrollBars@QsciScintillaBase@@IEAAXXZ
    ?setScrollWidth@QsciScintilla@@QEAAXH@Z
    ?setScrollWidthTracking@QsciScintilla@@QEAAX_N@Z
    ?setSelection@QsciScintilla@@UEAAXHHHH@Z
    ?setSelectionBackgroundColor@QsciScintilla@@UEAAXAEBVQColor@@@Z
    ?setSelectionForegroundColor@QsciScintilla@@UEAAXAEBVQColor@@@Z
    ?setSelectionToEol@QsciScintilla@@QEAAX_N@Z
    ?setSmartHighlightProp@QsciLexerPascal@@AEAAXXZ
    ?setSmartHighlighting@QsciLexerPascal@@QEAAX_N@Z
    ?setStringsOverNewlineAllowed@QsciLexerPython@@QEAAX_N@Z
    ?setStringsOverNewlineProp@QsciLexerPython@@AEAAXXZ
    ?setStyle@QsciStyle@@QEAAXH@Z
    ?setStyleDefaults@QsciLexer@@AEBAXXZ
    ?setStylePreprocProp@QsciLexerCPP@@AEAAXXZ
    ?setStylePreprocProp@QsciLexerCoffeeScript@@AEAAXXZ
    ?setStylePreprocessor@QsciLexerCPP@@UEAAX_N@Z
    ?setStylePreprocessor@QsciLexerCoffeeScript@@QEAAX_N@Z
    ?setStylesFont@QsciScintilla@@AEAAXAEBVQFont@@H@Z
    ?setStyling@QsciLexerCustom@@QEAAXHAEBVQsciStyle@@@Z
    ?setStyling@QsciLexerCustom@@QEAAXHH@Z
    ?setSyntaxBasedProp@QsciLexerAsm@@AEAAXXZ
    ?setTabDrawMode@QsciScintilla@@QEAAXW4TabDrawMode@1@@Z
    ?setTabIndents@QsciScintilla@@UEAAX_N@Z
    ?setTabWhingeProp@QsciLexerPython@@AEAAXXZ
    ?setTabWidth@QsciScintilla@@UEAAXH@Z
    ?setText@QsciScintilla@@UEAAXAEBVQString@@@Z
    ?setTextCase@QsciStyle@@QEAAXW4TextCase@1@@Z
    ?setThemesDefaultStyleData@QsciLexer@@QEBAAEAUStyleData@1@H@Z
    ?setTokenize@QsciLexerPostScript@@UEAAX_N@Z
    ?setTokenizeProp@QsciLexerPostScript@@AEAAXXZ
    ?setUnmatchedBraceBackgroundColor@QsciScintilla@@QEAAXAEBVQColor@@@Z
    ?setUnmatchedBraceForegroundColor@QsciScintilla@@QEAAXAEBVQColor@@@Z
    ?setUnmatchedBraceIndicator@QsciScintilla@@QEAAXH@Z
    ?setUtf8@QsciScintilla@@UEAAX_N@Z
    ?setUtf8Text@QsciScintilla@@UEAAHAEBVQString@@@Z
    ?setUtf8Text@QsciScintilla@@UEAAHPEBDH@Z
    ?setV2UnicodeAllowed@QsciLexerPython@@QEAAX_N@Z
    ?setV2UnicodeProp@QsciLexerPython@@AEAAXXZ
    ?setV3BinaryOctalAllowed@QsciLexerPython@@QEAAX_N@Z
    ?setV3BinaryOctalProp@QsciLexerPython@@AEAAXXZ
    ?setV3BytesAllowed@QsciLexerPython@@QEAAX_N@Z
    ?setV3BytesProp@QsciLexerPython@@AEAAXXZ
    ?setVerbatimStringEscapeProp@QsciLexerCPP@@AEAAXXZ
    ?setVerbatimStringEscapeSequencesAllowed@QsciLexerCPP@@QEAAX_N@Z
    ?setVisible@QsciStyle@@QEAAX_N@Z
    ?setWhitespaceBackgroundColor@QsciScintilla@@QEAAXAEBVQColor@@@Z
    ?setWhitespaceForegroundColor@QsciScintilla@@QEAAXAEBVQColor@@@Z
    ?setWhitespaceSize@QsciScintilla@@QEAAXH@Z
    ?setWhitespaceVisibility@QsciScintilla@@UEAAXW4WhitespaceVisibility@1@@Z
    ?setWrapIndentMode@QsciScintilla@@QEAAXW4WrapIndentMode@1@@Z
    ?setWrapMode@QsciPrinter@@UEAAXW4WrapMode@QsciScintilla@@@Z
    ?setWrapMode@QsciScintilla@@UEAAXW4WrapMode@1@@Z
    ?setWrapVisualFlags@QsciScintilla@@QEAAXW4WrapVisualFlag@1@0H@Z
    ?set_shortcut@QsciScintilla@@AEBAXPEAVQAction@@W4Command@QsciCommand@@@Z
    ?showUserList@QsciScintilla@@QEAAXHAEBVQStringList@@@Z
    ?smartHighlighting@QsciLexerPascal@@QEBA_NXZ
    ?standardCommands@QsciScintilla@@QEBAPEAVQsciCommandSet@@XZ
    ?startAutoCompletion@QsciScintilla@@AEAAXW4AutoCompletionSource@1@_N1@Z
    ?startAutoWordCompletion@QsciScintilla@@MEAA_NW4AutoCompletionSource@1@_N1@Z
    ?startRecording@QsciMacro@@UEAAXXZ
    ?startStyling@QsciLexerCustom@@QEAAXHH@Z
    ?staticMetaObject@QsciAPIs@@2UQMetaObject@@B
    ?staticMetaObject@QsciAbstractAPIs@@2UQMetaObject@@B
    ?staticMetaObject@QsciLexer@@2UQMetaObject@@B
    ?staticMetaObject@QsciLexerApdl@@2UQMetaObject@@B
    ?staticMetaObject@QsciLexerAsm@@2UQMetaObject@@B
    ?staticMetaObject@QsciLexerBash@@2UQMetaObject@@B
    ?staticMetaObject@QsciLexerBatch@@2UQMetaObject@@B
    ?staticMetaObject@QsciLexerCMake@@2UQMetaObject@@B
    ?staticMetaObject@QsciLexerCPP@@2UQMetaObject@@B
    ?staticMetaObject@QsciLexerCSS@@2UQMetaObject@@B
    ?staticMetaObject@QsciLexerCSharp@@2UQMetaObject@@B
    ?staticMetaObject@QsciLexerCoffeeScript@@2UQMetaObject@@B
    ?staticMetaObject@QsciLexerCustom@@2UQMetaObject@@B
    ?staticMetaObject@QsciLexerD@@2UQMetaObject@@B
    ?staticMetaObject@QsciLexerDiff@@2UQMetaObject@@B
    ?staticMetaObject@QsciLexerEDIFACT@@2UQMetaObject@@B
    ?staticMetaObject@QsciLexerFortran77@@2UQMetaObject@@B
    ?staticMetaObject@QsciLexerFortran@@2UQMetaObject@@B
    ?staticMetaObject@QsciLexerGCode@@2UQMetaObject@@B
    ?staticMetaObject@QsciLexerGO@@2UQMetaObject@@B
    ?staticMetaObject@QsciLexerGlobal@@2UQMetaObject@@B
    ?staticMetaObject@QsciLexerHTML@@2UQMetaObject@@B
    ?staticMetaObject@QsciLexerHex@@2UQMetaObject@@B
    ?staticMetaObject@QsciLexerIDL@@2UQMetaObject@@B
    ?staticMetaObject@QsciLexerIntelHex@@2UQMetaObject@@B
    ?staticMetaObject@QsciLexerJSON@@2UQMetaObject@@B
    ?staticMetaObject@QsciLexerJava@@2UQMetaObject@@B
    ?staticMetaObject@QsciLexerJavaScript@@2UQMetaObject@@B
    ?staticMetaObject@QsciLexerLisp@@2UQMetaObject@@B
    ?staticMetaObject@QsciLexerLog@@2UQMetaObject@@B
    ?staticMetaObject@QsciLexerLua@@2UQMetaObject@@B
    ?staticMetaObject@QsciLexerMASM@@2UQMetaObject@@B
    ?staticMetaObject@QsciLexerMakefile@@2UQMetaObject@@B
    ?staticMetaObject@QsciLexerMarkdown@@2UQMetaObject@@B
    ?staticMetaObject@QsciLexerMatlab@@2UQMetaObject@@B
    ?staticMetaObject@QsciLexerNASM@@2UQMetaObject@@B
    ?staticMetaObject@QsciLexerNsis@@2UQMetaObject@@B
    ?staticMetaObject@QsciLexerOctave@@2UQMetaObject@@B
    ?staticMetaObject@QsciLexerPO@@2UQMetaObject@@B
    ?staticMetaObject@QsciLexerPOV@@2UQMetaObject@@B
    ?staticMetaObject@QsciLexerPascal@@2UQMetaObject@@B
    ?staticMetaObject@QsciLexerPerl@@2UQMetaObject@@B
    ?staticMetaObject@QsciLexerPostScript@@2UQMetaObject@@B
    ?staticMetaObject@QsciLexerPowerShell@@2UQMetaObject@@B
    ?staticMetaObject@QsciLexerProperties@@2UQMetaObject@@B
    ?staticMetaObject@QsciLexerPython@@2UQMetaObject@@B
    ?staticMetaObject@QsciLexerR@@2UQMetaObject@@B
    ?staticMetaObject@QsciLexerRuby@@2UQMetaObject@@B
    ?staticMetaObject@QsciLexerRust@@2UQMetaObject@@B
    ?staticMetaObject@QsciLexerSQL@@2UQMetaObject@@B
    ?staticMetaObject@QsciLexerSRec@@2UQMetaObject@@B
    ?staticMetaObject@QsciLexerSpice@@2UQMetaObject@@B
    ?staticMetaObject@QsciLexerTCL@@2UQMetaObject@@B
    ?staticMetaObject@QsciLexerTeX@@2UQMetaObject@@B
    ?staticMetaObject@QsciLexerTekHex@@2UQMetaObject@@B
    ?staticMetaObject@QsciLexerText@@2UQMetaObject@@B
    ?staticMetaObject@QsciLexerVB@@2UQMetaObject@@B
    ?staticMetaObject@QsciLexerVHDL@@2UQMetaObject@@B
    ?staticMetaObject@QsciLexerVerilog@@2UQMetaObject@@B
    ?staticMetaObject@QsciLexerXML@@2UQMetaObject@@B
    ?staticMetaObject@QsciLexerYAML@@2UQMetaObject@@B
    ?staticMetaObject@QsciMacro@@2UQMetaObject@@B
    ?staticMetaObject@QsciScintilla@@2UQMetaObject@@B
    ?staticMetaObject@QsciScintillaBase@@2UQMetaObject@@B
    ?stringsOverNewlineAllowed@QsciLexerPython@@QEBA_NXZ
    ?style@QsciStyle@@QEBAHXZ
    ?style@QsciStyledText@@QEBAHXZ
    ?styleBitsNeeded@QsciLexer@@UEBAHXZ
    ?styleBitsNeeded@QsciLexerCustom@@UEBAHXZ
    ?styleData@QsciLexer@@QEBAAEAUStyleData@1@H@Z
    ?stylePreprocessor@QsciLexerCPP@@QEBA_NXZ
    ?stylePreprocessor@QsciLexerCoffeeScript@@QEBA_NXZ
    ?styleText@QsciScintilla@@AEAA?AVQByteArray@@AEBV?$QList@VQsciStyledText@@@@PEAPEADH@Z
    ?tabDrawMode@QsciScintilla@@QEBA?AW4TabDrawMode@1@XZ
    ?tabIndents@QsciScintilla@@QEBA_NXZ
    ?tabWidth@QsciScintilla@@QEBAHXZ
    ?text@QsciScintilla@@QEBA?AVQString@@H@Z
    ?text@QsciScintilla@@QEBA?AVQString@@HH@Z
    ?text@QsciScintilla@@QEBA?AVQString@@XZ
    ?text@QsciStyledText@@QEBAAEBVQString@@XZ
    ?textAsBytes@QsciLexer@@IEBA?AVQByteArray@@AEBVQString@@@Z
    ?textAsBytes@QsciScintillaBase@@IEBA?AVQByteArray@@AEBVQString@@@Z
    ?textCase@QsciStyle@@QEBA?AW4TextCase@1@XZ
    ?textChanged@QsciScintilla@@QEAAXXZ
    ?textHeight@QsciScintilla@@QEBAHH@Z
    ?toMimeData@QsciScintillaBase@@MEBAPEAVQMimeData@@AEBVQByteArray@@_N@Z
    ?tokenize@QsciLexerPostScript@@QEBA_NXZ
    ?tr@QsciAPIs@@SA?AVQString@@PEBD0H@Z
    ?tr@QsciAbstractAPIs@@SA?AVQString@@PEBD0H@Z
    ?tr@QsciLexer@@SA?AVQString@@PEBD0H@Z
    ?tr@QsciLexerApdl@@SA?AVQString@@PEBD0H@Z
    ?tr@QsciLexerAsm@@SA?AVQString@@PEBD0H@Z
    ?tr@QsciLexerBash@@SA?AVQString@@PEBD0H@Z
    ?tr@QsciLexerBatch@@SA?AVQString@@PEBD0H@Z
    ?tr@QsciLexerCMake@@SA?AVQString@@PEBD0H@Z
    ?tr@QsciLexerCPP@@SA?AVQString@@PEBD0H@Z
    ?tr@QsciLexerCSS@@SA?AVQString@@PEBD0H@Z
    ?tr@QsciLexerCSharp@@SA?AVQString@@PEBD0H@Z
    ?tr@QsciLexerCoffeeScript@@SA?AVQString@@PEBD0H@Z
    ?tr@QsciLexerCustom@@SA?AVQString@@PEBD0H@Z
    ?tr@QsciLexerD@@SA?AVQString@@PEBD0H@Z
    ?tr@QsciLexerDiff@@SA?AVQString@@PEBD0H@Z
    ?tr@QsciLexerEDIFACT@@SA?AVQString@@PEBD0H@Z
    ?tr@QsciLexerFortran77@@SA?AVQString@@PEBD0H@Z
    ?tr@QsciLexerFortran@@SA?AVQString@@PEBD0H@Z
    ?tr@QsciLexerGCode@@SA?AVQString@@PEBD0H@Z
    ?tr@QsciLexerGO@@SA?AVQString@@PEBD0H@Z
    ?tr@QsciLexerGlobal@@SA?AVQString@@PEBD0H@Z
    ?tr@QsciLexerHTML@@SA?AVQString@@PEBD0H@Z
    ?tr@QsciLexerHex@@SA?AVQString@@PEBD0H@Z
    ?tr@QsciLexerIDL@@SA?AVQString@@PEBD0H@Z
    ?tr@QsciLexerIntelHex@@SA?AVQString@@PEBD0H@Z
    ?tr@QsciLexerJSON@@SA?AVQString@@PEBD0H@Z
    ?tr@QsciLexerJava@@SA?AVQString@@PEBD0H@Z
    ?tr@QsciLexerJavaScript@@SA?AVQString@@PEBD0H@Z
    ?tr@QsciLexerLisp@@SA?AVQString@@PEBD0H@Z
    ?tr@QsciLexerLog@@SA?AVQString@@PEBD0H@Z
    ?tr@QsciLexerLua@@SA?AVQString@@PEBD0H@Z
    ?tr@QsciLexerMASM@@SA?AVQString@@PEBD0H@Z
    ?tr@QsciLexerMakefile@@SA?AVQString@@PEBD0H@Z
    ?tr@QsciLexerMarkdown@@SA?AVQString@@PEBD0H@Z
    ?tr@QsciLexerMatlab@@SA?AVQString@@PEBD0H@Z
    ?tr@QsciLexerNASM@@SA?AVQString@@PEBD0H@Z
    ?tr@QsciLexerNsis@@SA?AVQString@@PEBD0H@Z
    ?tr@QsciLexerOctave@@SA?AVQString@@PEBD0H@Z
    ?tr@QsciLexerPO@@SA?AVQString@@PEBD0H@Z
    ?tr@QsciLexerPOV@@SA?AVQString@@PEBD0H@Z
    ?tr@QsciLexerPascal@@SA?AVQString@@PEBD0H@Z
    ?tr@QsciLexerPerl@@SA?AVQString@@PEBD0H@Z
    ?tr@QsciLexerPostScript@@SA?AVQString@@PEBD0H@Z
    ?tr@QsciLexerPowerShell@@SA?AVQString@@PEBD0H@Z
    ?tr@QsciLexerProperties@@SA?AVQString@@PEBD0H@Z
    ?tr@QsciLexerPython@@SA?AVQString@@PEBD0H@Z
    ?tr@QsciLexerR@@SA?AVQString@@PEBD0H@Z
    ?tr@QsciLexerRuby@@SA?AVQString@@PEBD0H@Z
    ?tr@QsciLexerRust@@SA?AVQString@@PEBD0H@Z
    ?tr@QsciLexerSQL@@SA?AVQString@@PEBD0H@Z
    ?tr@QsciLexerSRec@@SA?AVQString@@PEBD0H@Z
    ?tr@QsciLexerSpice@@SA?AVQString@@PEBD0H@Z
    ?tr@QsciLexerTCL@@SA?AVQString@@PEBD0H@Z
    ?tr@QsciLexerTeX@@SA?AVQString@@PEBD0H@Z
    ?tr@QsciLexerTekHex@@SA?AVQString@@PEBD0H@Z
    ?tr@QsciLexerText@@SA?AVQString@@PEBD0H@Z
    ?tr@QsciLexerVB@@SA?AVQString@@PEBD0H@Z
    ?tr@QsciLexerVHDL@@SA?AVQString@@PEBD0H@Z
    ?tr@QsciLexerVerilog@@SA?AVQString@@PEBD0H@Z
    ?tr@QsciLexerXML@@SA?AVQString@@PEBD0H@Z
    ?tr@QsciLexerYAML@@SA?AVQString@@PEBD0H@Z
    ?tr@QsciMacro@@SA?AVQString@@PEBD0H@Z
    ?tr@QsciScintilla@@SA?AVQString@@PEBD0H@Z
    ?tr@QsciScintillaBase@@SA?AVQString@@PEBD0H@Z
    ?trUtf8@QsciAPIs@@SA?AVQString@@PEBD0H@Z
    ?trUtf8@QsciAbstractAPIs@@SA?AVQString@@PEBD0H@Z
    ?trUtf8@QsciLexer@@SA?AVQString@@PEBD0H@Z
    ?trUtf8@QsciLexerApdl@@SA?AVQString@@PEBD0H@Z
    ?trUtf8@QsciLexerAsm@@SA?AVQString@@PEBD0H@Z
    ?trUtf8@QsciLexerBash@@SA?AVQString@@PEBD0H@Z
    ?trUtf8@QsciLexerBatch@@SA?AVQString@@PEBD0H@Z
    ?trUtf8@QsciLexerCMake@@SA?AVQString@@PEBD0H@Z
    ?trUtf8@QsciLexerCPP@@SA?AVQString@@PEBD0H@Z
    ?trUtf8@QsciLexerCSS@@SA?AVQString@@PEBD0H@Z
    ?trUtf8@QsciLexerCSharp@@SA?AVQString@@PEBD0H@Z
    ?trUtf8@QsciLexerCoffeeScript@@SA?AVQString@@PEBD0H@Z
    ?trUtf8@QsciLexerCustom@@SA?AVQString@@PEBD0H@Z
    ?trUtf8@QsciLexerD@@SA?AVQString@@PEBD0H@Z
    ?trUtf8@QsciLexerDiff@@SA?AVQString@@PEBD0H@Z
    ?trUtf8@QsciLexerEDIFACT@@SA?AVQString@@PEBD0H@Z
    ?trUtf8@QsciLexerFortran77@@SA?AVQString@@PEBD0H@Z
    ?trUtf8@QsciLexerFortran@@SA?AVQString@@PEBD0H@Z
    ?trUtf8@QsciLexerGCode@@SA?AVQString@@PEBD0H@Z
    ?trUtf8@QsciLexerGO@@SA?AVQString@@PEBD0H@Z
    ?trUtf8@QsciLexerGlobal@@SA?AVQString@@PEBD0H@Z
    ?trUtf8@QsciLexerHTML@@SA?AVQString@@PEBD0H@Z
    ?trUtf8@QsciLexerHex@@SA?AVQString@@PEBD0H@Z
    ?trUtf8@QsciLexerIDL@@SA?AVQString@@PEBD0H@Z
    ?trUtf8@QsciLexerIntelHex@@SA?AVQString@@PEBD0H@Z
    ?trUtf8@QsciLexerJSON@@SA?AVQString@@PEBD0H@Z
    ?trUtf8@QsciLexerJava@@SA?AVQString@@PEBD0H@Z
    ?trUtf8@QsciLexerJavaScript@@SA?AVQString@@PEBD0H@Z
    ?trUtf8@QsciLexerLisp@@SA?AVQString@@PEBD0H@Z
    ?trUtf8@QsciLexerLog@@SA?AVQString@@PEBD0H@Z
    ?trUtf8@QsciLexerLua@@SA?AVQString@@PEBD0H@Z
    ?trUtf8@QsciLexerMASM@@SA?AVQString@@PEBD0H@Z
    ?trUtf8@QsciLexerMakefile@@SA?AVQString@@PEBD0H@Z
    ?trUtf8@QsciLexerMarkdown@@SA?AVQString@@PEBD0H@Z
    ?trUtf8@QsciLexerMatlab@@SA?AVQString@@PEBD0H@Z
    ?trUtf8@QsciLexerNASM@@SA?AVQString@@PEBD0H@Z
    ?trUtf8@QsciLexerNsis@@SA?AVQString@@PEBD0H@Z
    ?trUtf8@QsciLexerOctave@@SA?AVQString@@PEBD0H@Z
    ?trUtf8@QsciLexerPO@@SA?AVQString@@PEBD0H@Z
    ?trUtf8@QsciLexerPOV@@SA?AVQString@@PEBD0H@Z
    ?trUtf8@QsciLexerPascal@@SA?AVQString@@PEBD0H@Z
    ?trUtf8@QsciLexerPerl@@SA?AVQString@@PEBD0H@Z
    ?trUtf8@QsciLexerPostScript@@SA?AVQString@@PEBD0H@Z
    ?trUtf8@QsciLexerPowerShell@@SA?AVQString@@PEBD0H@Z
    ?trUtf8@QsciLexerProperties@@SA?AVQString@@PEBD0H@Z
    ?trUtf8@QsciLexerPython@@SA?AVQString@@PEBD0H@Z
    ?trUtf8@QsciLexerR@@SA?AVQString@@PEBD0H@Z
    ?trUtf8@QsciLexerRuby@@SA?AVQString@@PEBD0H@Z
    ?trUtf8@QsciLexerRust@@SA?AVQString@@PEBD0H@Z
    ?trUtf8@QsciLexerSQL@@SA?AVQString@@PEBD0H@Z
    ?trUtf8@QsciLexerSRec@@SA?AVQString@@PEBD0H@Z
    ?trUtf8@QsciLexerSpice@@SA?AVQString@@PEBD0H@Z
    ?trUtf8@QsciLexerTCL@@SA?AVQString@@PEBD0H@Z
    ?trUtf8@QsciLexerTeX@@SA?AVQString@@PEBD0H@Z
    ?trUtf8@QsciLexerTekHex@@SA?AVQString@@PEBD0H@Z
    ?trUtf8@QsciLexerText@@SA?AVQString@@PEBD0H@Z
    ?trUtf8@QsciLexerVB@@SA?AVQString@@PEBD0H@Z
    ?trUtf8@QsciLexerVHDL@@SA?AVQString@@PEBD0H@Z
    ?trUtf8@QsciLexerVerilog@@SA?AVQString@@PEBD0H@Z
    ?trUtf8@QsciLexerXML@@SA?AVQString@@PEBD0H@Z
    ?trUtf8@QsciLexerYAML@@SA?AVQString@@PEBD0H@Z
    ?trUtf8@QsciMacro@@SA?AVQString@@PEBD0H@Z
    ?trUtf8@QsciScintilla@@SA?AVQString@@PEBD0H@Z
    ?trUtf8@QsciScintillaBase@@SA?AVQString@@PEBD0H@Z
    ?undisplay@QsciDocument@@AEAAXPEAVQsciScintillaBase@@@Z
    ?undo@QsciScintilla@@UEAAXXZ
    ?unindent@QsciScintilla@@UEAAXH@Z
    ?updateAutoCompletionList@QsciAPIs@@UEAAXAEBVQStringList@@AEAV2@@Z
    ?updateLineNumberWidth@QsciScintillaBase@@MEAAXH@Z
    ?userListActivated@QsciScintilla@@QEAAXHAEBVQString@@@Z
    ?v2UnicodeAllowed@QsciLexerPython@@QEBA_NXZ
    ?v3BinaryOctalAllowed@QsciLexerPython@@QEBA_NXZ
    ?v3BytesAllowed@QsciLexerPython@@QEBA_NXZ
    ?validKey@QsciCommand@@SA_NH@Z
    ?verbatimStringEscapeSequencesAllowed@QsciLexerCPP@@QEBA_NXZ
    ?visible@QsciStyle@@QEBA_NXZ
    ?wheelEvent@QsciScintilla@@MEAAXPEAVQWheelEvent@@@Z
    ?whitespaceSize@QsciScintilla@@QEBAHXZ
    ?whitespaceVisibility@QsciScintilla@@QEBA?AW4WhitespaceVisibility@1@XZ
    ?wordAtLineIndex@QsciScintilla@@QEBA?AVQString@@HH@Z
    ?wordAtPoint@QsciScintilla@@QEBA?AVQString@@AEBVQPoint@@@Z
    ?wordAtPosition@QsciScintilla@@QEBA?AVQString@@H@Z
    ?wordCharacters@QsciLexer@@UEBAPEBDXZ
    ?wordCharacters@QsciLexerAsm@@UEBAPEBDXZ
    ?wordCharacters@QsciLexerBash@@UEBAPEBDXZ
    ?wordCharacters@QsciLexerBatch@@UEBAPEBDXZ
    ?wordCharacters@QsciLexerCPP@@UEBAPEBDXZ
    ?wordCharacters@QsciLexerCSS@@UEBAPEBDXZ
    ?wordCharacters@QsciLexerCoffeeScript@@UEBAPEBDXZ
    ?wordCharacters@QsciLexerD@@UEBAPEBDXZ
    ?wordCharacters@QsciLexerDiff@@UEBAPEBDXZ
    ?wordCharacters@QsciLexerHTML@@UEBAPEBDXZ
    ?wordCharacters@QsciLexerMakefile@@UEBAPEBDXZ
    ?wordCharacters@QsciLexerPOV@@UEBAPEBDXZ
    ?wordCharacters@QsciLexerPerl@@UEBAPEBDXZ
    ?wordCharacters@QsciLexerProperties@@UEBAPEBDXZ
    ?wordCharacters@QsciLexerR@@UEBAPEBDXZ
    ?wordCharacters@QsciLexerTeX@@UEBAPEBDXZ
    ?wordCharacters@QsciLexerVerilog@@UEBAPEBDXZ
    ?wordCharacters@QsciScintilla@@QEBAPEBDXZ
    ?wordIndexOf@QsciAPIs@@AEBAPEBV?$QList@U?$QPair@II@@@@AEBVQString@@@Z
    ?wrapIndentMode@QsciScintilla@@QEBA?AW4WrapIndentMode@1@XZ
    ?wrapMode@QsciPrinter@@QEBA?AW4WrapMode@QsciScintilla@@XZ
    ?wrapMode@QsciScintilla@@QEBA?AW4WrapMode@1@XZ
    ?write@QsciScintilla@@QEBA_NPEAVQIODevice@@@Z
    ?writeProperties@QsciLexer@@MEBA_NAEAVQSettings@@AEBVQString@@@Z
    ?writeProperties@QsciLexerAsm@@MEBA_NAEAVQSettings@@AEBVQString@@@Z
    ?writeProperties@QsciLexerBash@@MEBA_NAEAVQSettings@@AEBVQString@@@Z
    ?writeProperties@QsciLexerCMake@@MEBA_NAEAVQSettings@@AEBVQString@@@Z
    ?writeProperties@QsciLexerCPP@@MEBA_NAEAVQSettings@@AEBVQString@@@Z
    ?writeProperties@QsciLexerCSS@@MEBA_NAEAVQSettings@@AEBVQString@@@Z
    ?writeProperties@QsciLexerCoffeeScript@@MEBA_NAEAVQSettings@@AEBVQString@@@Z
    ?writeProperties@QsciLexerD@@MEBA_NAEAVQSettings@@AEBVQString@@@Z
    ?writeProperties@QsciLexerFortran77@@MEBA_NAEAVQSettings@@AEBVQString@@@Z
    ?writeProperties@QsciLexerHTML@@MEBA_NAEAVQSettings@@AEBVQString@@@Z
    ?writeProperties@QsciLexerJSON@@MEBA_NAEAVQSettings@@AEBVQString@@@Z
    ?writeProperties@QsciLexerLua@@MEBA_NAEAVQSettings@@AEBVQString@@@Z
    ?writeProperties@QsciLexerPO@@MEBA_NAEAVQSettings@@AEBVQString@@@Z
    ?writeProperties@QsciLexerPOV@@MEBA_NAEAVQSettings@@AEBVQString@@@Z
    ?writeProperties@QsciLexerPascal@@MEBA_NAEAVQSettings@@AEBVQString@@@Z
    ?writeProperties@QsciLexerPerl@@MEBA_NAEAVQSettings@@AEBVQString@@@Z
    ?writeProperties@QsciLexerPostScript@@MEBA_NAEAVQSettings@@AEBVQString@@@Z
    ?writeProperties@QsciLexerProperties@@MEBA_NAEAVQSettings@@AEBVQString@@@Z
    ?writeProperties@QsciLexerPython@@MEBA_NAEAVQSettings@@AEBVQString@@@Z
    ?writeProperties@QsciLexerRuby@@MEBA_NAEAVQSettings@@AEBVQString@@@Z
    ?writeProperties@QsciLexerSQL@@MEBA_NAEAVQSettings@@AEBVQString@@@Z
    ?writeProperties@QsciLexerTCL@@MEBA_NAEAVQSettings@@AEBVQString@@@Z
    ?writeProperties@QsciLexerTeX@@MEBA_NAEAVQSettings@@AEBVQString@@@Z
    ?writeProperties@QsciLexerVHDL@@MEBA_NAEAVQSettings@@AEBVQString@@@Z
    ?writeProperties@QsciLexerVerilog@@MEBA_NAEAVQSettings@@AEBVQString@@@Z
    ?writeProperties@QsciLexerXML@@MEBA_NAEAVQSettings@@AEBVQString@@@Z
    ?writeProperties@QsciLexerYAML@@MEBA_NAEAVQSettings@@AEBVQString@@@Z
    ?writeSettings@QsciCommandSet@@QEAA_NAEAVQSettings@@PEBD@Z
    ?writeSettings@QsciLexer@@QEBA_NAEAVQSettings@@PEBD@Z
    ?zoomIn@QsciScintilla@@UEAAXH@Z
    ?zoomIn@QsciScintilla@@UEAAXXZ
    ?zoomOut@QsciScintilla@@UEAAXH@Z
    ?zoomOut@QsciScintilla@@UEAAXXZ
    ?zoomTo@QsciScintilla@@UEAAXH@Z
